
mynasm:     file format elf64-x86-64


Disassembly of section .init:

0000000000008000 <_init>:
    8000:	f3 0f 1e fa          	endbr64 
    8004:	48 83 ec 08          	sub    $0x8,%rsp
    8008:	48 8b 05 c1 0f 01 00 	mov    0x10fc1(%rip),%rax        # 18fd0 <__gmon_start__@Base>
    800f:	48 85 c0             	test   %rax,%rax
    8012:	74 02                	je     8016 <_init+0x16>
    8014:	ff d0                	call   *%rax
    8016:	48 83 c4 08          	add    $0x8,%rsp
    801a:	c3                   	ret    

Disassembly of section .plt:

0000000000008020 <.plt>:
    8020:	ff 35 12 0f 01 00    	push   0x10f12(%rip)        # 18f38 <_GLOBAL_OFFSET_TABLE_+0x8>
    8026:	f2 ff 25 13 0f 01 00 	bnd jmp *0x10f13(%rip)        # 18f40 <_GLOBAL_OFFSET_TABLE_+0x10>
    802d:	0f 1f 00             	nopl   (%rax)
    8030:	f3 0f 1e fa          	endbr64 
    8034:	68 00 00 00 00       	push   $0x0
    8039:	f2 e9 e1 ff ff ff    	bnd jmp 8020 <_init+0x20>
    803f:	90                   	nop
    8040:	f3 0f 1e fa          	endbr64 
    8044:	68 01 00 00 00       	push   $0x1
    8049:	f2 e9 d1 ff ff ff    	bnd jmp 8020 <_init+0x20>
    804f:	90                   	nop
    8050:	f3 0f 1e fa          	endbr64 
    8054:	68 02 00 00 00       	push   $0x2
    8059:	f2 e9 c1 ff ff ff    	bnd jmp 8020 <_init+0x20>
    805f:	90                   	nop
    8060:	f3 0f 1e fa          	endbr64 
    8064:	68 03 00 00 00       	push   $0x3
    8069:	f2 e9 b1 ff ff ff    	bnd jmp 8020 <_init+0x20>
    806f:	90                   	nop
    8070:	f3 0f 1e fa          	endbr64 
    8074:	68 04 00 00 00       	push   $0x4
    8079:	f2 e9 a1 ff ff ff    	bnd jmp 8020 <_init+0x20>
    807f:	90                   	nop
    8080:	f3 0f 1e fa          	endbr64 
    8084:	68 05 00 00 00       	push   $0x5
    8089:	f2 e9 91 ff ff ff    	bnd jmp 8020 <_init+0x20>
    808f:	90                   	nop
    8090:	f3 0f 1e fa          	endbr64 
    8094:	68 06 00 00 00       	push   $0x6
    8099:	f2 e9 81 ff ff ff    	bnd jmp 8020 <_init+0x20>
    809f:	90                   	nop
    80a0:	f3 0f 1e fa          	endbr64 
    80a4:	68 07 00 00 00       	push   $0x7
    80a9:	f2 e9 71 ff ff ff    	bnd jmp 8020 <_init+0x20>
    80af:	90                   	nop
    80b0:	f3 0f 1e fa          	endbr64 
    80b4:	68 08 00 00 00       	push   $0x8
    80b9:	f2 e9 61 ff ff ff    	bnd jmp 8020 <_init+0x20>
    80bf:	90                   	nop
    80c0:	f3 0f 1e fa          	endbr64 
    80c4:	68 09 00 00 00       	push   $0x9
    80c9:	f2 e9 51 ff ff ff    	bnd jmp 8020 <_init+0x20>
    80cf:	90                   	nop
    80d0:	f3 0f 1e fa          	endbr64 
    80d4:	68 0a 00 00 00       	push   $0xa
    80d9:	f2 e9 41 ff ff ff    	bnd jmp 8020 <_init+0x20>
    80df:	90                   	nop
    80e0:	f3 0f 1e fa          	endbr64 
    80e4:	68 0b 00 00 00       	push   $0xb
    80e9:	f2 e9 31 ff ff ff    	bnd jmp 8020 <_init+0x20>
    80ef:	90                   	nop
    80f0:	f3 0f 1e fa          	endbr64 
    80f4:	68 0c 00 00 00       	push   $0xc
    80f9:	f2 e9 21 ff ff ff    	bnd jmp 8020 <_init+0x20>
    80ff:	90                   	nop
    8100:	f3 0f 1e fa          	endbr64 
    8104:	68 0d 00 00 00       	push   $0xd
    8109:	f2 e9 11 ff ff ff    	bnd jmp 8020 <_init+0x20>
    810f:	90                   	nop
    8110:	f3 0f 1e fa          	endbr64 
    8114:	68 0e 00 00 00       	push   $0xe
    8119:	f2 e9 01 ff ff ff    	bnd jmp 8020 <_init+0x20>
    811f:	90                   	nop

Disassembly of section .plt.got:

0000000000008120 <__cxa_finalize@plt>:
    8120:	f3 0f 1e fa          	endbr64 
    8124:	f2 ff 25 b5 0e 01 00 	bnd jmp *0x10eb5(%rip)        # 18fe0 <__cxa_finalize@GLIBC_2.2.5>
    812b:	0f 1f 44 00 00       	nopl   0x0(%rax,%rax,1)

Disassembly of section .plt.sec:

0000000000008130 <free@plt>:
    8130:	f3 0f 1e fa          	endbr64 
    8134:	f2 ff 25 0d 0e 01 00 	bnd jmp *0x10e0d(%rip)        # 18f48 <free@GLIBC_2.2.5>
    813b:	0f 1f 44 00 00       	nopl   0x0(%rax,%rax,1)

0000000000008140 <putchar@plt>:
    8140:	f3 0f 1e fa          	endbr64 
    8144:	f2 ff 25 05 0e 01 00 	bnd jmp *0x10e05(%rip)        # 18f50 <putchar@GLIBC_2.2.5>
    814b:	0f 1f 44 00 00       	nopl   0x0(%rax,%rax,1)

0000000000008150 <puts@plt>:
    8150:	f3 0f 1e fa          	endbr64 
    8154:	f2 ff 25 fd 0d 01 00 	bnd jmp *0x10dfd(%rip)        # 18f58 <puts@GLIBC_2.2.5>
    815b:	0f 1f 44 00 00       	nopl   0x0(%rax,%rax,1)

0000000000008160 <vsnprintf@plt>:
    8160:	f3 0f 1e fa          	endbr64 
    8164:	f2 ff 25 f5 0d 01 00 	bnd jmp *0x10df5(%rip)        # 18f60 <vsnprintf@GLIBC_2.2.5>
    816b:	0f 1f 44 00 00       	nopl   0x0(%rax,%rax,1)

0000000000008170 <__stack_chk_fail@plt>:
    8170:	f3 0f 1e fa          	endbr64 
    8174:	f2 ff 25 ed 0d 01 00 	bnd jmp *0x10ded(%rip)        # 18f68 <__stack_chk_fail@GLIBC_2.4>
    817b:	0f 1f 44 00 00       	nopl   0x0(%rax,%rax,1)

0000000000008180 <printf@plt>:
    8180:	f3 0f 1e fa          	endbr64 
    8184:	f2 ff 25 e5 0d 01 00 	bnd jmp *0x10de5(%rip)        # 18f70 <printf@GLIBC_2.2.5>
    818b:	0f 1f 44 00 00       	nopl   0x0(%rax,%rax,1)

0000000000008190 <__assert_fail@plt>:
    8190:	f3 0f 1e fa          	endbr64 
    8194:	f2 ff 25 dd 0d 01 00 	bnd jmp *0x10ddd(%rip)        # 18f78 <__assert_fail@GLIBC_2.2.5>
    819b:	0f 1f 44 00 00       	nopl   0x0(%rax,%rax,1)

00000000000081a0 <close@plt>:
    81a0:	f3 0f 1e fa          	endbr64 
    81a4:	f2 ff 25 d5 0d 01 00 	bnd jmp *0x10dd5(%rip)        # 18f80 <close@GLIBC_2.2.5>
    81ab:	0f 1f 44 00 00       	nopl   0x0(%rax,%rax,1)

00000000000081b0 <read@plt>:
    81b0:	f3 0f 1e fa          	endbr64 
    81b4:	f2 ff 25 cd 0d 01 00 	bnd jmp *0x10dcd(%rip)        # 18f88 <read@GLIBC_2.2.5>
    81bb:	0f 1f 44 00 00       	nopl   0x0(%rax,%rax,1)

00000000000081c0 <fprintf@plt>:
    81c0:	f3 0f 1e fa          	endbr64 
    81c4:	f2 ff 25 c5 0d 01 00 	bnd jmp *0x10dc5(%rip)        # 18f90 <fprintf@GLIBC_2.2.5>
    81cb:	0f 1f 44 00 00       	nopl   0x0(%rax,%rax,1)

00000000000081d0 <malloc@plt>:
    81d0:	f3 0f 1e fa          	endbr64 
    81d4:	f2 ff 25 bd 0d 01 00 	bnd jmp *0x10dbd(%rip)        # 18f98 <malloc@GLIBC_2.2.5>
    81db:	0f 1f 44 00 00       	nopl   0x0(%rax,%rax,1)

00000000000081e0 <realloc@plt>:
    81e0:	f3 0f 1e fa          	endbr64 
    81e4:	f2 ff 25 b5 0d 01 00 	bnd jmp *0x10db5(%rip)        # 18fa0 <realloc@GLIBC_2.2.5>
    81eb:	0f 1f 44 00 00       	nopl   0x0(%rax,%rax,1)

00000000000081f0 <open@plt>:
    81f0:	f3 0f 1e fa          	endbr64 
    81f4:	f2 ff 25 ad 0d 01 00 	bnd jmp *0x10dad(%rip)        # 18fa8 <open@GLIBC_2.2.5>
    81fb:	0f 1f 44 00 00       	nopl   0x0(%rax,%rax,1)

0000000000008200 <perror@plt>:
    8200:	f3 0f 1e fa          	endbr64 
    8204:	f2 ff 25 a5 0d 01 00 	bnd jmp *0x10da5(%rip)        # 18fb0 <perror@GLIBC_2.2.5>
    820b:	0f 1f 44 00 00       	nopl   0x0(%rax,%rax,1)

0000000000008210 <exit@plt>:
    8210:	f3 0f 1e fa          	endbr64 
    8214:	f2 ff 25 9d 0d 01 00 	bnd jmp *0x10d9d(%rip)        # 18fb8 <exit@GLIBC_2.2.5>
    821b:	0f 1f 44 00 00       	nopl   0x0(%rax,%rax,1)

Disassembly of section .text:

0000000000008220 <_start>:
    8220:	f3 0f 1e fa          	endbr64 
    8224:	31 ed                	xor    %ebp,%ebp
    8226:	49 89 d1             	mov    %rdx,%r9
    8229:	5e                   	pop    %rsi
    822a:	48 89 e2             	mov    %rsp,%rdx
    822d:	48 83 e4 f0          	and    $0xfffffffffffffff0,%rsp
    8231:	50                   	push   %rax
    8232:	54                   	push   %rsp
    8233:	45 31 c0             	xor    %r8d,%r8d
    8236:	31 c9                	xor    %ecx,%ecx
    8238:	48 8d 3d 5e 96 00 00 	lea    0x965e(%rip),%rdi        # 1189d <main>
    823f:	ff 15 7b 0d 01 00    	call   *0x10d7b(%rip)        # 18fc0 <__libc_start_main@GLIBC_2.34>
    8245:	f4                   	hlt    
    8246:	66 2e 0f 1f 84 00 00 	cs nopw 0x0(%rax,%rax,1)
    824d:	00 00 00 

0000000000008250 <deregister_tm_clones>:
    8250:	48 8d 3d b9 0d 01 00 	lea    0x10db9(%rip),%rdi        # 19010 <__TMC_END__>
    8257:	48 8d 05 b2 0d 01 00 	lea    0x10db2(%rip),%rax        # 19010 <__TMC_END__>
    825e:	48 39 f8             	cmp    %rdi,%rax
    8261:	74 15                	je     8278 <deregister_tm_clones+0x28>
    8263:	48 8b 05 5e 0d 01 00 	mov    0x10d5e(%rip),%rax        # 18fc8 <_ITM_deregisterTMCloneTable@Base>
    826a:	48 85 c0             	test   %rax,%rax
    826d:	74 09                	je     8278 <deregister_tm_clones+0x28>
    826f:	ff e0                	jmp    *%rax
    8271:	0f 1f 80 00 00 00 00 	nopl   0x0(%rax)
    8278:	c3                   	ret    
    8279:	0f 1f 80 00 00 00 00 	nopl   0x0(%rax)

0000000000008280 <register_tm_clones>:
    8280:	48 8d 3d 89 0d 01 00 	lea    0x10d89(%rip),%rdi        # 19010 <__TMC_END__>
    8287:	48 8d 35 82 0d 01 00 	lea    0x10d82(%rip),%rsi        # 19010 <__TMC_END__>
    828e:	48 29 fe             	sub    %rdi,%rsi
    8291:	48 89 f0             	mov    %rsi,%rax
    8294:	48 c1 ee 3f          	shr    $0x3f,%rsi
    8298:	48 c1 f8 03          	sar    $0x3,%rax
    829c:	48 01 c6             	add    %rax,%rsi
    829f:	48 d1 fe             	sar    %rsi
    82a2:	74 14                	je     82b8 <register_tm_clones+0x38>
    82a4:	48 8b 05 2d 0d 01 00 	mov    0x10d2d(%rip),%rax        # 18fd8 <_ITM_registerTMCloneTable@Base>
    82ab:	48 85 c0             	test   %rax,%rax
    82ae:	74 08                	je     82b8 <register_tm_clones+0x38>
    82b0:	ff e0                	jmp    *%rax
    82b2:	66 0f 1f 44 00 00    	nopw   0x0(%rax,%rax,1)
    82b8:	c3                   	ret    
    82b9:	0f 1f 80 00 00 00 00 	nopl   0x0(%rax)

00000000000082c0 <__do_global_dtors_aux>:
    82c0:	f3 0f 1e fa          	endbr64 
    82c4:	80 3d 7d 0d 01 00 00 	cmpb   $0x0,0x10d7d(%rip)        # 19048 <completed.0>
    82cb:	75 2b                	jne    82f8 <__do_global_dtors_aux+0x38>
    82cd:	55                   	push   %rbp
    82ce:	48 83 3d 0a 0d 01 00 	cmpq   $0x0,0x10d0a(%rip)        # 18fe0 <__cxa_finalize@GLIBC_2.2.5>
    82d5:	00 
    82d6:	48 89 e5             	mov    %rsp,%rbp
    82d9:	74 0c                	je     82e7 <__do_global_dtors_aux+0x27>
    82db:	48 8b 3d 26 0d 01 00 	mov    0x10d26(%rip),%rdi        # 19008 <__dso_handle>
    82e2:	e8 39 fe ff ff       	call   8120 <__cxa_finalize@plt>
    82e7:	e8 64 ff ff ff       	call   8250 <deregister_tm_clones>
    82ec:	c6 05 55 0d 01 00 01 	movb   $0x1,0x10d55(%rip)        # 19048 <completed.0>
    82f3:	5d                   	pop    %rbp
    82f4:	c3                   	ret    
    82f5:	0f 1f 00             	nopl   (%rax)
    82f8:	c3                   	ret    
    82f9:	0f 1f 80 00 00 00 00 	nopl   0x0(%rax)

0000000000008300 <frame_dummy>:
    8300:	f3 0f 1e fa          	endbr64 
    8304:	e9 77 ff ff ff       	jmp    8280 <register_tm_clones>

0000000000008309 <reg_to_word>:
    8309:	55                   	push   %rbp
    830a:	48 89 e5             	mov    %rsp,%rbp
    830d:	89 7d fc             	mov    %edi,-0x4(%rbp)
    8310:	89 75 f8             	mov    %esi,-0x8(%rbp)
    8313:	8b 45 f8             	mov    -0x8(%rbp),%eax
    8316:	c1 e0 03             	shl    $0x3,%eax
    8319:	89 c2                	mov    %eax,%edx
    831b:	8b 45 fc             	mov    -0x4(%rbp),%eax
    831e:	01 d0                	add    %edx,%eax
    8320:	89 c0                	mov    %eax,%eax
    8322:	48 8d 14 c5 00 00 00 	lea    0x0(,%rax,8),%rdx
    8329:	00 
    832a:	48 8d 05 0f e4 00 00 	lea    0xe40f(%rip),%rax        # 16740 <registry_names.0>
    8331:	48 8b 04 02          	mov    (%rdx,%rax,1),%rax
    8335:	5d                   	pop    %rbp
    8336:	c3                   	ret    

0000000000008337 <effective_address_to_word>:
    8337:	55                   	push   %rbp
    8338:	48 89 e5             	mov    %rsp,%rbp
    833b:	89 7d fc             	mov    %edi,-0x4(%rbp)
    833e:	8b 45 fc             	mov    -0x4(%rbp),%eax
    8341:	48 8d 14 c5 00 00 00 	lea    0x0(,%rax,8),%rdx
    8348:	00 
    8349:	48 8d 05 b0 e3 00 00 	lea    0xe3b0(%rip),%rax        # 16700 <formulas_for_ea_calculations.1>
    8350:	48 8b 04 02          	mov    (%rdx,%rax,1),%rax
    8354:	5d                   	pop    %rbp
    8355:	c3                   	ret    

0000000000008356 <type_to_word__word>:
    8356:	f3 0f 1e fa          	endbr64 
    835a:	55                   	push   %rbp
    835b:	48 89 e5             	mov    %rsp,%rbp
    835e:	48 8d 05 9f 9c 00 00 	lea    0x9c9f(%rip),%rax        # 12004 <_IO_stdin_used+0x4>
    8365:	5d                   	pop    %rbp
    8366:	c3                   	ret    

0000000000008367 <type_to_word__byte>:
    8367:	f3 0f 1e fa          	endbr64 
    836b:	55                   	push   %rbp
    836c:	48 89 e5             	mov    %rsp,%rbp
    836f:	48 8d 05 93 9c 00 00 	lea    0x9c93(%rip),%rax        # 12009 <_IO_stdin_used+0x9>
    8376:	5d                   	pop    %rbp
    8377:	c3                   	ret    

0000000000008378 <mod__ea__print__non_zero>:
    8378:	f3 0f 1e fa          	endbr64 
    837c:	55                   	push   %rbp
    837d:	48 89 e5             	mov    %rsp,%rbp
    8380:	41 54                	push   %r12
    8382:	53                   	push   %rbx
    8383:	48 83 ec 10          	sub    $0x10,%rsp
    8387:	89 7d ec             	mov    %edi,-0x14(%rbp)
    838a:	89 f0                	mov    %esi,%eax
    838c:	48 89 55 e0          	mov    %rdx,-0x20(%rbp)
    8390:	66 89 45 e8          	mov    %ax,-0x18(%rbp)
    8394:	0f b7 45 e8          	movzwl -0x18(%rbp),%eax
    8398:	89 c2                	mov    %eax,%edx
    839a:	66 f7 da             	neg    %dx
    839d:	0f 49 c2             	cmovns %edx,%eax
    83a0:	44 0f b7 e0          	movzwl %ax,%r12d
    83a4:	66 83 7d e8 00       	cmpw   $0x0,-0x18(%rbp)
    83a9:	79 09                	jns    83b4 <mod__ea__print__non_zero+0x3c>
    83ab:	48 8d 1d 5c 9c 00 00 	lea    0x9c5c(%rip),%rbx        # 1200e <_IO_stdin_used+0xe>
    83b2:	eb 07                	jmp    83bb <mod__ea__print__non_zero+0x43>
    83b4:	48 8d 1d 55 9c 00 00 	lea    0x9c55(%rip),%rbx        # 12010 <_IO_stdin_used+0x10>
    83bb:	8b 45 ec             	mov    -0x14(%rbp),%eax
    83be:	89 c7                	mov    %eax,%edi
    83c0:	e8 72 ff ff ff       	call   8337 <effective_address_to_word>
    83c5:	48 89 c2             	mov    %rax,%rdx
    83c8:	48 8b 45 e0          	mov    -0x20(%rbp),%rax
    83cc:	45 89 e0             	mov    %r12d,%r8d
    83cf:	48 89 d9             	mov    %rbx,%rcx
    83d2:	48 8d 35 39 9c 00 00 	lea    0x9c39(%rip),%rsi        # 12012 <_IO_stdin_used+0x12>
    83d9:	48 89 c7             	mov    %rax,%rdi
    83dc:	b8 00 00 00 00       	mov    $0x0,%eax
    83e1:	e8 d4 8f 00 00       	call   113ba <instruction__push>
    83e6:	90                   	nop
    83e7:	48 83 c4 10          	add    $0x10,%rsp
    83eb:	5b                   	pop    %rbx
    83ec:	41 5c                	pop    %r12
    83ee:	5d                   	pop    %rbp
    83ef:	c3                   	ret    

00000000000083f0 <mod__ea__print__zero>:
    83f0:	f3 0f 1e fa          	endbr64 
    83f4:	55                   	push   %rbp
    83f5:	48 89 e5             	mov    %rsp,%rbp
    83f8:	48 83 ec 10          	sub    $0x10,%rsp
    83fc:	89 7d fc             	mov    %edi,-0x4(%rbp)
    83ff:	89 f0                	mov    %esi,%eax
    8401:	48 89 55 f0          	mov    %rdx,-0x10(%rbp)
    8405:	66 89 45 f8          	mov    %ax,-0x8(%rbp)
    8409:	8b 45 fc             	mov    -0x4(%rbp),%eax
    840c:	89 c7                	mov    %eax,%edi
    840e:	e8 24 ff ff ff       	call   8337 <effective_address_to_word>
    8413:	48 89 c2             	mov    %rax,%rdx
    8416:	48 8b 45 f0          	mov    -0x10(%rbp),%rax
    841a:	48 8d 0d fc 9b 00 00 	lea    0x9bfc(%rip),%rcx        # 1201d <_IO_stdin_used+0x1d>
    8421:	48 89 ce             	mov    %rcx,%rsi
    8424:	48 89 c7             	mov    %rax,%rdi
    8427:	b8 00 00 00 00       	mov    $0x0,%eax
    842c:	e8 89 8f 00 00       	call   113ba <instruction__push>
    8431:	90                   	nop
    8432:	c9                   	leave  
    8433:	c3                   	ret    

0000000000008434 <mod__no_ea__reg>:
    8434:	f3 0f 1e fa          	endbr64 
    8438:	55                   	push   %rbp
    8439:	48 89 e5             	mov    %rsp,%rbp
    843c:	53                   	push   %rbx
    843d:	48 83 ec 28          	sub    $0x28,%rsp
    8441:	89 7d ec             	mov    %edi,-0x14(%rbp)
    8444:	89 75 e8             	mov    %esi,-0x18(%rbp)
    8447:	89 55 e4             	mov    %edx,-0x1c(%rbp)
    844a:	48 89 4d d8          	mov    %rcx,-0x28(%rbp)
    844e:	8b 45 e4             	mov    -0x1c(%rbp),%eax
    8451:	89 c7                	mov    %eax,%edi
    8453:	e8 df fe ff ff       	call   8337 <effective_address_to_word>
    8458:	48 89 c3             	mov    %rax,%rbx
    845b:	8b 45 e8             	mov    -0x18(%rbp),%eax
    845e:	8b 55 ec             	mov    -0x14(%rbp),%edx
    8461:	89 d6                	mov    %edx,%esi
    8463:	89 c7                	mov    %eax,%edi
    8465:	e8 9f fe ff ff       	call   8309 <reg_to_word>
    846a:	48 89 c2             	mov    %rax,%rdx
    846d:	48 8b 45 d8          	mov    -0x28(%rbp),%rax
    8471:	48 89 d9             	mov    %rbx,%rcx
    8474:	48 8d 35 a7 9b 00 00 	lea    0x9ba7(%rip),%rsi        # 12022 <_IO_stdin_used+0x22>
    847b:	48 89 c7             	mov    %rax,%rdi
    847e:	b8 00 00 00 00       	mov    $0x0,%eax
    8483:	e8 32 8f 00 00       	call   113ba <instruction__push>
    8488:	90                   	nop
    8489:	48 8b 5d f8          	mov    -0x8(%rbp),%rbx
    848d:	c9                   	leave  
    848e:	c3                   	ret    

000000000000848f <mod__no_ea__rm>:
    848f:	f3 0f 1e fa          	endbr64 
    8493:	55                   	push   %rbp
    8494:	48 89 e5             	mov    %rsp,%rbp
    8497:	53                   	push   %rbx
    8498:	48 83 ec 28          	sub    $0x28,%rsp
    849c:	89 7d ec             	mov    %edi,-0x14(%rbp)
    849f:	89 75 e8             	mov    %esi,-0x18(%rbp)
    84a2:	89 55 e4             	mov    %edx,-0x1c(%rbp)
    84a5:	48 89 4d d8          	mov    %rcx,-0x28(%rbp)
    84a9:	8b 45 e8             	mov    -0x18(%rbp),%eax
    84ac:	8b 55 ec             	mov    -0x14(%rbp),%edx
    84af:	89 d6                	mov    %edx,%esi
    84b1:	89 c7                	mov    %eax,%edi
    84b3:	e8 51 fe ff ff       	call   8309 <reg_to_word>
    84b8:	48 89 c3             	mov    %rax,%rbx
    84bb:	8b 45 e4             	mov    -0x1c(%rbp),%eax
    84be:	89 c7                	mov    %eax,%edi
    84c0:	e8 72 fe ff ff       	call   8337 <effective_address_to_word>
    84c5:	48 89 c2             	mov    %rax,%rdx
    84c8:	48 8b 45 d8          	mov    -0x28(%rbp),%rax
    84cc:	48 89 d9             	mov    %rbx,%rcx
    84cf:	48 8d 35 55 9b 00 00 	lea    0x9b55(%rip),%rsi        # 1202b <_IO_stdin_used+0x2b>
    84d6:	48 89 c7             	mov    %rax,%rdi
    84d9:	b8 00 00 00 00       	mov    $0x0,%eax
    84de:	e8 d7 8e 00 00       	call   113ba <instruction__push>
    84e3:	90                   	nop
    84e4:	48 8b 5d f8          	mov    -0x8(%rbp),%rbx
    84e8:	c9                   	leave  
    84e9:	c3                   	ret    

00000000000084ea <mod__no_ea__reg__da>:
    84ea:	f3 0f 1e fa          	endbr64 
    84ee:	55                   	push   %rbp
    84ef:	48 89 e5             	mov    %rsp,%rbp
    84f2:	48 83 ec 20          	sub    $0x20,%rsp
    84f6:	89 7d fc             	mov    %edi,-0x4(%rbp)
    84f9:	89 75 f8             	mov    %esi,-0x8(%rbp)
    84fc:	89 55 f4             	mov    %edx,-0xc(%rbp)
    84ff:	48 89 4d e8          	mov    %rcx,-0x18(%rbp)
    8503:	8b 45 f8             	mov    -0x8(%rbp),%eax
    8506:	8b 55 fc             	mov    -0x4(%rbp),%edx
    8509:	89 d6                	mov    %edx,%esi
    850b:	89 c7                	mov    %eax,%edi
    850d:	e8 f7 fd ff ff       	call   8309 <reg_to_word>
    8512:	48 89 c6             	mov    %rax,%rsi
    8515:	8b 55 f4             	mov    -0xc(%rbp),%edx
    8518:	48 8b 45 e8          	mov    -0x18(%rbp),%rax
    851c:	89 d1                	mov    %edx,%ecx
    851e:	48 89 f2             	mov    %rsi,%rdx
    8521:	48 8d 35 0c 9b 00 00 	lea    0x9b0c(%rip),%rsi        # 12034 <_IO_stdin_used+0x34>
    8528:	48 89 c7             	mov    %rax,%rdi
    852b:	b8 00 00 00 00       	mov    $0x0,%eax
    8530:	e8 85 8e 00 00       	call   113ba <instruction__push>
    8535:	90                   	nop
    8536:	c9                   	leave  
    8537:	c3                   	ret    

0000000000008538 <mod__no_ea__rm__da>:
    8538:	f3 0f 1e fa          	endbr64 
    853c:	55                   	push   %rbp
    853d:	48 89 e5             	mov    %rsp,%rbp
    8540:	48 83 ec 20          	sub    $0x20,%rsp
    8544:	89 7d fc             	mov    %edi,-0x4(%rbp)
    8547:	89 75 f8             	mov    %esi,-0x8(%rbp)
    854a:	89 55 f4             	mov    %edx,-0xc(%rbp)
    854d:	48 89 4d e8          	mov    %rcx,-0x18(%rbp)
    8551:	8b 45 f8             	mov    -0x8(%rbp),%eax
    8554:	8b 55 fc             	mov    -0x4(%rbp),%edx
    8557:	89 d6                	mov    %edx,%esi
    8559:	89 c7                	mov    %eax,%edi
    855b:	e8 a9 fd ff ff       	call   8309 <reg_to_word>
    8560:	48 89 c1             	mov    %rax,%rcx
    8563:	8b 55 f4             	mov    -0xc(%rbp),%edx
    8566:	48 8b 45 e8          	mov    -0x18(%rbp),%rax
    856a:	48 8d 35 cc 9a 00 00 	lea    0x9acc(%rip),%rsi        # 1203d <_IO_stdin_used+0x3d>
    8571:	48 89 c7             	mov    %rax,%rdi
    8574:	b8 00 00 00 00       	mov    $0x0,%eax
    8579:	e8 3c 8e 00 00       	call   113ba <instruction__push>
    857e:	90                   	nop
    857f:	c9                   	leave  
    8580:	c3                   	ret    

0000000000008581 <mod__ea__reg>:
    8581:	f3 0f 1e fa          	endbr64 
    8585:	55                   	push   %rbp
    8586:	48 89 e5             	mov    %rsp,%rbp
    8589:	48 83 ec 20          	sub    $0x20,%rsp
    858d:	89 7d fc             	mov    %edi,-0x4(%rbp)
    8590:	89 75 f8             	mov    %esi,-0x8(%rbp)
    8593:	89 55 f4             	mov    %edx,-0xc(%rbp)
    8596:	89 c8                	mov    %ecx,%eax
    8598:	4c 89 45 e8          	mov    %r8,-0x18(%rbp)
    859c:	66 89 45 f0          	mov    %ax,-0x10(%rbp)
    85a0:	8b 45 f8             	mov    -0x8(%rbp),%eax
    85a3:	8b 55 fc             	mov    -0x4(%rbp),%edx
    85a6:	89 d6                	mov    %edx,%esi
    85a8:	89 c7                	mov    %eax,%edi
    85aa:	e8 5a fd ff ff       	call   8309 <reg_to_word>
    85af:	48 89 c2             	mov    %rax,%rdx
    85b2:	48 8b 45 e8          	mov    -0x18(%rbp),%rax
    85b6:	48 8d 0d 89 9a 00 00 	lea    0x9a89(%rip),%rcx        # 12046 <_IO_stdin_used+0x46>
    85bd:	48 89 ce             	mov    %rcx,%rsi
    85c0:	48 89 c7             	mov    %rax,%rdi
    85c3:	b8 00 00 00 00       	mov    $0x0,%eax
    85c8:	e8 ed 8d 00 00       	call   113ba <instruction__push>
    85cd:	66 83 7d f0 00       	cmpw   $0x0,-0x10(%rbp)
    85d2:	0f 94 c0             	sete   %al
    85d5:	0f b6 c0             	movzbl %al,%eax
    85d8:	48 98                	cltq   
    85da:	48 8d 14 c5 00 00 00 	lea    0x0(,%rax,8),%rdx
    85e1:	00 
    85e2:	48 8d 05 07 e1 00 00 	lea    0xe107(%rip),%rax        # 166f0 <mod__ea__print__zero_handler>
    85e9:	4c 8b 04 02          	mov    (%rdx,%rax,1),%r8
    85ed:	0f bf 4d f0          	movswl -0x10(%rbp),%ecx
    85f1:	48 8b 55 e8          	mov    -0x18(%rbp),%rdx
    85f5:	8b 45 f4             	mov    -0xc(%rbp),%eax
    85f8:	89 ce                	mov    %ecx,%esi
    85fa:	89 c7                	mov    %eax,%edi
    85fc:	41 ff d0             	call   *%r8
    85ff:	90                   	nop
    8600:	c9                   	leave  
    8601:	c3                   	ret    

0000000000008602 <mod__ea__rm>:
    8602:	f3 0f 1e fa          	endbr64 
    8606:	55                   	push   %rbp
    8607:	48 89 e5             	mov    %rsp,%rbp
    860a:	48 83 ec 20          	sub    $0x20,%rsp
    860e:	89 7d fc             	mov    %edi,-0x4(%rbp)
    8611:	89 75 f8             	mov    %esi,-0x8(%rbp)
    8614:	89 55 f4             	mov    %edx,-0xc(%rbp)
    8617:	89 c8                	mov    %ecx,%eax
    8619:	4c 89 45 e8          	mov    %r8,-0x18(%rbp)
    861d:	66 89 45 f0          	mov    %ax,-0x10(%rbp)
    8621:	66 83 7d f0 00       	cmpw   $0x0,-0x10(%rbp)
    8626:	0f 94 c0             	sete   %al
    8629:	0f b6 c0             	movzbl %al,%eax
    862c:	48 98                	cltq   
    862e:	48 8d 14 c5 00 00 00 	lea    0x0(,%rax,8),%rdx
    8635:	00 
    8636:	48 8d 05 b3 e0 00 00 	lea    0xe0b3(%rip),%rax        # 166f0 <mod__ea__print__zero_handler>
    863d:	4c 8b 04 02          	mov    (%rdx,%rax,1),%r8
    8641:	0f bf 4d f0          	movswl -0x10(%rbp),%ecx
    8645:	48 8b 55 e8          	mov    -0x18(%rbp),%rdx
    8649:	8b 45 f4             	mov    -0xc(%rbp),%eax
    864c:	89 ce                	mov    %ecx,%esi
    864e:	89 c7                	mov    %eax,%edi
    8650:	41 ff d0             	call   *%r8
    8653:	8b 45 f8             	mov    -0x8(%rbp),%eax
    8656:	8b 55 fc             	mov    -0x4(%rbp),%edx
    8659:	89 d6                	mov    %edx,%esi
    865b:	89 c7                	mov    %eax,%edi
    865d:	e8 a7 fc ff ff       	call   8309 <reg_to_word>
    8662:	48 89 c2             	mov    %rax,%rdx
    8665:	48 8b 45 e8          	mov    -0x18(%rbp),%rax
    8669:	48 8d 0d db 99 00 00 	lea    0x99db(%rip),%rcx        # 1204b <_IO_stdin_used+0x4b>
    8670:	48 89 ce             	mov    %rcx,%rsi
    8673:	48 89 c7             	mov    %rax,%rdi
    8676:	b8 00 00 00 00       	mov    $0x0,%eax
    867b:	e8 3a 8d 00 00       	call   113ba <instruction__push>
    8680:	90                   	nop
    8681:	c9                   	leave  
    8682:	c3                   	ret    

0000000000008683 <mod__register_mode__reg>:
    8683:	f3 0f 1e fa          	endbr64 
    8687:	55                   	push   %rbp
    8688:	48 89 e5             	mov    %rsp,%rbp
    868b:	48 83 ec 20          	sub    $0x20,%rsp
    868f:	89 7d fc             	mov    %edi,-0x4(%rbp)
    8692:	89 75 f8             	mov    %esi,-0x8(%rbp)
    8695:	89 55 f4             	mov    %edx,-0xc(%rbp)
    8698:	48 89 4d e8          	mov    %rcx,-0x18(%rbp)
    869c:	48 8b 4d e8          	mov    -0x18(%rbp),%rcx
    86a0:	8b 55 f8             	mov    -0x8(%rbp),%edx
    86a3:	8b 75 f4             	mov    -0xc(%rbp),%esi
    86a6:	8b 45 fc             	mov    -0x4(%rbp),%eax
    86a9:	89 c7                	mov    %eax,%edi
    86ab:	e8 03 00 00 00       	call   86b3 <mod__register_mode__rm>
    86b0:	90                   	nop
    86b1:	c9                   	leave  
    86b2:	c3                   	ret    

00000000000086b3 <mod__register_mode__rm>:
    86b3:	f3 0f 1e fa          	endbr64 
    86b7:	55                   	push   %rbp
    86b8:	48 89 e5             	mov    %rsp,%rbp
    86bb:	53                   	push   %rbx
    86bc:	48 83 ec 28          	sub    $0x28,%rsp
    86c0:	89 7d ec             	mov    %edi,-0x14(%rbp)
    86c3:	89 75 e8             	mov    %esi,-0x18(%rbp)
    86c6:	89 55 e4             	mov    %edx,-0x1c(%rbp)
    86c9:	48 89 4d d8          	mov    %rcx,-0x28(%rbp)
    86cd:	8b 45 e8             	mov    -0x18(%rbp),%eax
    86d0:	8b 55 ec             	mov    -0x14(%rbp),%edx
    86d3:	89 d6                	mov    %edx,%esi
    86d5:	89 c7                	mov    %eax,%edi
    86d7:	e8 2d fc ff ff       	call   8309 <reg_to_word>
    86dc:	48 89 c3             	mov    %rax,%rbx
    86df:	8b 45 e4             	mov    -0x1c(%rbp),%eax
    86e2:	8b 55 ec             	mov    -0x14(%rbp),%edx
    86e5:	89 d6                	mov    %edx,%esi
    86e7:	89 c7                	mov    %eax,%edi
    86e9:	e8 1b fc ff ff       	call   8309 <reg_to_word>
    86ee:	48 89 c2             	mov    %rax,%rdx
    86f1:	48 8b 45 d8          	mov    -0x28(%rbp),%rax
    86f5:	48 89 d9             	mov    %rbx,%rcx
    86f8:	48 8d 35 51 99 00 00 	lea    0x9951(%rip),%rsi        # 12050 <_IO_stdin_used+0x50>
    86ff:	48 89 c7             	mov    %rax,%rdi
    8702:	b8 00 00 00 00       	mov    $0x0,%eax
    8707:	e8 ae 8c 00 00       	call   113ba <instruction__push>
    870c:	90                   	nop
    870d:	48 8b 5d f8          	mov    -0x8(%rbp),%rbx
    8711:	c9                   	leave  
    8712:	c3                   	ret    

0000000000008713 <mod__no_ea_immediate>:
    8713:	f3 0f 1e fa          	endbr64 
    8717:	55                   	push   %rbp
    8718:	48 89 e5             	mov    %rsp,%rbp
    871b:	41 54                	push   %r12
    871d:	53                   	push   %rbx
    871e:	48 83 ec 20          	sub    $0x20,%rsp
    8722:	89 7d ec             	mov    %edi,-0x14(%rbp)
    8725:	89 75 e8             	mov    %esi,-0x18(%rbp)
    8728:	89 d0                	mov    %edx,%eax
    872a:	48 89 4d d8          	mov    %rcx,-0x28(%rbp)
    872e:	66 89 45 e4          	mov    %ax,-0x1c(%rbp)
    8732:	44 0f b7 65 e4       	movzwl -0x1c(%rbp),%r12d
    8737:	8b 45 ec             	mov    -0x14(%rbp),%eax
    873a:	48 98                	cltq   
    873c:	48 8d 14 c5 00 00 00 	lea    0x0(,%rax,8),%rdx
    8743:	00 
    8744:	48 8d 05 95 df 00 00 	lea    0xdf95(%rip),%rax        # 166e0 <type_to_word>
    874b:	48 8b 04 02          	mov    (%rdx,%rax,1),%rax
    874f:	ff d0                	call   *%rax
    8751:	48 89 c3             	mov    %rax,%rbx
    8754:	8b 45 e8             	mov    -0x18(%rbp),%eax
    8757:	89 c7                	mov    %eax,%edi
    8759:	e8 d9 fb ff ff       	call   8337 <effective_address_to_word>
    875e:	48 89 c2             	mov    %rax,%rdx
    8761:	48 8b 45 d8          	mov    -0x28(%rbp),%rax
    8765:	45 89 e0             	mov    %r12d,%r8d
    8768:	48 89 d9             	mov    %rbx,%rcx
    876b:	48 8d 35 e5 98 00 00 	lea    0x98e5(%rip),%rsi        # 12057 <_IO_stdin_used+0x57>
    8772:	48 89 c7             	mov    %rax,%rdi
    8775:	b8 00 00 00 00       	mov    $0x0,%eax
    877a:	e8 3b 8c 00 00       	call   113ba <instruction__push>
    877f:	90                   	nop
    8780:	48 83 c4 20          	add    $0x20,%rsp
    8784:	5b                   	pop    %rbx
    8785:	41 5c                	pop    %r12
    8787:	5d                   	pop    %rbp
    8788:	c3                   	ret    

0000000000008789 <mod__no_ea_immediate__da>:
    8789:	f3 0f 1e fa          	endbr64 
    878d:	55                   	push   %rbp
    878e:	48 89 e5             	mov    %rsp,%rbp
    8791:	53                   	push   %rbx
    8792:	48 83 ec 28          	sub    $0x28,%rsp
    8796:	89 7d ec             	mov    %edi,-0x14(%rbp)
    8799:	89 d0                	mov    %edx,%eax
    879b:	48 89 4d d8          	mov    %rcx,-0x28(%rbp)
    879f:	89 f2                	mov    %esi,%edx
    87a1:	66 89 55 e8          	mov    %dx,-0x18(%rbp)
    87a5:	66 89 45 e4          	mov    %ax,-0x1c(%rbp)
    87a9:	0f b7 5d e8          	movzwl -0x18(%rbp),%ebx
    87ad:	8b 45 ec             	mov    -0x14(%rbp),%eax
    87b0:	48 98                	cltq   
    87b2:	48 8d 14 c5 00 00 00 	lea    0x0(,%rax,8),%rdx
    87b9:	00 
    87ba:	48 8d 05 1f df 00 00 	lea    0xdf1f(%rip),%rax        # 166e0 <type_to_word>
    87c1:	48 8b 04 02          	mov    (%rdx,%rax,1),%rax
    87c5:	ff d0                	call   *%rax
    87c7:	48 89 c1             	mov    %rax,%rcx
    87ca:	0f b7 55 e4          	movzwl -0x1c(%rbp),%edx
    87ce:	48 8b 45 d8          	mov    -0x28(%rbp),%rax
    87d2:	41 89 d8             	mov    %ebx,%r8d
    87d5:	48 8d 35 87 98 00 00 	lea    0x9887(%rip),%rsi        # 12063 <_IO_stdin_used+0x63>
    87dc:	48 89 c7             	mov    %rax,%rdi
    87df:	b8 00 00 00 00       	mov    $0x0,%eax
    87e4:	e8 d1 8b 00 00       	call   113ba <instruction__push>
    87e9:	90                   	nop
    87ea:	48 8b 5d f8          	mov    -0x8(%rbp),%rbx
    87ee:	c9                   	leave  
    87ef:	c3                   	ret    

00000000000087f0 <mod__ea_immediate>:
    87f0:	f3 0f 1e fa          	endbr64 
    87f4:	55                   	push   %rbp
    87f5:	48 89 e5             	mov    %rsp,%rbp
    87f8:	53                   	push   %rbx
    87f9:	48 83 ec 28          	sub    $0x28,%rsp
    87fd:	89 7d ec             	mov    %edi,-0x14(%rbp)
    8800:	89 75 e8             	mov    %esi,-0x18(%rbp)
    8803:	89 c8                	mov    %ecx,%eax
    8805:	4c 89 45 d8          	mov    %r8,-0x28(%rbp)
    8809:	66 89 55 e4          	mov    %dx,-0x1c(%rbp)
    880d:	66 89 45 e0          	mov    %ax,-0x20(%rbp)
    8811:	66 83 7d e0 00       	cmpw   $0x0,-0x20(%rbp)
    8816:	0f 94 c0             	sete   %al
    8819:	0f b6 c0             	movzbl %al,%eax
    881c:	48 98                	cltq   
    881e:	48 8d 14 c5 00 00 00 	lea    0x0(,%rax,8),%rdx
    8825:	00 
    8826:	48 8d 05 c3 de 00 00 	lea    0xdec3(%rip),%rax        # 166f0 <mod__ea__print__zero_handler>
    882d:	4c 8b 04 02          	mov    (%rdx,%rax,1),%r8
    8831:	0f bf 4d e0          	movswl -0x20(%rbp),%ecx
    8835:	48 8b 55 d8          	mov    -0x28(%rbp),%rdx
    8839:	8b 45 e8             	mov    -0x18(%rbp),%eax
    883c:	89 ce                	mov    %ecx,%esi
    883e:	89 c7                	mov    %eax,%edi
    8840:	41 ff d0             	call   *%r8
    8843:	0f b7 5d e4          	movzwl -0x1c(%rbp),%ebx
    8847:	8b 45 ec             	mov    -0x14(%rbp),%eax
    884a:	48 98                	cltq   
    884c:	48 8d 14 c5 00 00 00 	lea    0x0(,%rax,8),%rdx
    8853:	00 
    8854:	48 8d 05 85 de 00 00 	lea    0xde85(%rip),%rax        # 166e0 <type_to_word>
    885b:	48 8b 04 02          	mov    (%rdx,%rax,1),%rax
    885f:	ff d0                	call   *%rax
    8861:	48 89 c2             	mov    %rax,%rdx
    8864:	48 8b 45 d8          	mov    -0x28(%rbp),%rax
    8868:	89 d9                	mov    %ebx,%ecx
    886a:	48 8d 35 fe 97 00 00 	lea    0x97fe(%rip),%rsi        # 1206f <_IO_stdin_used+0x6f>
    8871:	48 89 c7             	mov    %rax,%rdi
    8874:	b8 00 00 00 00       	mov    $0x0,%eax
    8879:	e8 3c 8b 00 00       	call   113ba <instruction__push>
    887e:	90                   	nop
    887f:	48 8b 5d f8          	mov    -0x8(%rbp),%rbx
    8883:	c9                   	leave  
    8884:	c3                   	ret    

0000000000008885 <mod__register_mode_immediate>:
    8885:	f3 0f 1e fa          	endbr64 
    8889:	55                   	push   %rbp
    888a:	48 89 e5             	mov    %rsp,%rbp
    888d:	53                   	push   %rbx
    888e:	48 83 ec 28          	sub    $0x28,%rsp
    8892:	89 7d ec             	mov    %edi,-0x14(%rbp)
    8895:	89 75 e8             	mov    %esi,-0x18(%rbp)
    8898:	89 d0                	mov    %edx,%eax
    889a:	48 89 4d d8          	mov    %rcx,-0x28(%rbp)
    889e:	66 89 45 e4          	mov    %ax,-0x1c(%rbp)
    88a2:	0f b7 5d e4          	movzwl -0x1c(%rbp),%ebx
    88a6:	8b 45 e8             	mov    -0x18(%rbp),%eax
    88a9:	8b 55 ec             	mov    -0x14(%rbp),%edx
    88ac:	89 d6                	mov    %edx,%esi
    88ae:	89 c7                	mov    %eax,%edi
    88b0:	e8 54 fa ff ff       	call   8309 <reg_to_word>
    88b5:	48 89 c2             	mov    %rax,%rdx
    88b8:	48 8b 45 d8          	mov    -0x28(%rbp),%rax
    88bc:	89 d9                	mov    %ebx,%ecx
    88be:	48 8d 35 b2 97 00 00 	lea    0x97b2(%rip),%rsi        # 12077 <_IO_stdin_used+0x77>
    88c5:	48 89 c7             	mov    %rax,%rdi
    88c8:	b8 00 00 00 00       	mov    $0x0,%eax
    88cd:	e8 e8 8a 00 00       	call   113ba <instruction__push>
    88d2:	90                   	nop
    88d3:	48 8b 5d f8          	mov    -0x8(%rbp),%rbx
    88d7:	c9                   	leave  
    88d8:	c3                   	ret    

00000000000088d9 <reg_to_word>:
    88d9:	55                   	push   %rbp
    88da:	48 89 e5             	mov    %rsp,%rbp
    88dd:	89 7d fc             	mov    %edi,-0x4(%rbp)
    88e0:	89 75 f8             	mov    %esi,-0x8(%rbp)
    88e3:	8b 45 f8             	mov    -0x8(%rbp),%eax
    88e6:	c1 e0 03             	shl    $0x3,%eax
    88e9:	89 c2                	mov    %eax,%edx
    88eb:	8b 45 fc             	mov    -0x4(%rbp),%eax
    88ee:	01 d0                	add    %edx,%eax
    88f0:	89 c0                	mov    %eax,%eax
    88f2:	48 8d 14 c5 00 00 00 	lea    0x0(,%rax,8),%rdx
    88f9:	00 
    88fa:	48 8d 05 1f e7 00 00 	lea    0xe71f(%rip),%rax        # 17020 <registry_names.39>
    8901:	48 8b 04 02          	mov    (%rdx,%rax,1),%rax
    8905:	5d                   	pop    %rbp
    8906:	c3                   	ret    

0000000000008907 <effective_address_to_word>:
    8907:	55                   	push   %rbp
    8908:	48 89 e5             	mov    %rsp,%rbp
    890b:	89 7d fc             	mov    %edi,-0x4(%rbp)
    890e:	8b 45 fc             	mov    -0x4(%rbp),%eax
    8911:	48 8d 14 c5 00 00 00 	lea    0x0(,%rax,8),%rdx
    8918:	00 
    8919:	48 8d 05 c0 e6 00 00 	lea    0xe6c0(%rip),%rax        # 16fe0 <formulas_for_ea_calculations.40>
    8920:	48 8b 04 02          	mov    (%rdx,%rax,1),%rax
    8924:	5d                   	pop    %rbp
    8925:	c3                   	ret    

0000000000008926 <segment_reg_to_word>:
    8926:	55                   	push   %rbp
    8927:	48 89 e5             	mov    %rsp,%rbp
    892a:	89 7d fc             	mov    %edi,-0x4(%rbp)
    892d:	8b 45 fc             	mov    -0x4(%rbp),%eax
    8930:	48 8d 14 c5 00 00 00 	lea    0x0(,%rax,8),%rdx
    8937:	00 
    8938:	48 8d 05 61 e7 00 00 	lea    0xe761(%rip),%rax        # 170a0 <segment_registry_names.36>
    893f:	48 8b 04 02          	mov    (%rdx,%rax,1),%rax
    8943:	5d                   	pop    %rbp
    8944:	c3                   	ret    

0000000000008945 <type_to_word__word>:
    8945:	f3 0f 1e fa          	endbr64 
    8949:	55                   	push   %rbp
    894a:	48 89 e5             	mov    %rsp,%rbp
    894d:	48 8d 05 7c 97 00 00 	lea    0x977c(%rip),%rax        # 120d0 <_IO_stdin_used+0xd0>
    8954:	5d                   	pop    %rbp
    8955:	c3                   	ret    

0000000000008956 <type_to_word__byte>:
    8956:	f3 0f 1e fa          	endbr64 
    895a:	55                   	push   %rbp
    895b:	48 89 e5             	mov    %rsp,%rbp
    895e:	48 8d 05 70 97 00 00 	lea    0x9770(%rip),%rax        # 120d5 <_IO_stdin_used+0xd5>
    8965:	5d                   	pop    %rbp
    8966:	c3                   	ret    

0000000000008967 <mod__ea__print__non_zero>:
    8967:	f3 0f 1e fa          	endbr64 
    896b:	55                   	push   %rbp
    896c:	48 89 e5             	mov    %rsp,%rbp
    896f:	41 54                	push   %r12
    8971:	53                   	push   %rbx
    8972:	48 83 ec 10          	sub    $0x10,%rsp
    8976:	89 7d ec             	mov    %edi,-0x14(%rbp)
    8979:	89 f0                	mov    %esi,%eax
    897b:	48 89 55 e0          	mov    %rdx,-0x20(%rbp)
    897f:	66 89 45 e8          	mov    %ax,-0x18(%rbp)
    8983:	0f b7 45 e8          	movzwl -0x18(%rbp),%eax
    8987:	89 c2                	mov    %eax,%edx
    8989:	66 f7 da             	neg    %dx
    898c:	0f 49 c2             	cmovns %edx,%eax
    898f:	44 0f b7 e0          	movzwl %ax,%r12d
    8993:	66 83 7d e8 00       	cmpw   $0x0,-0x18(%rbp)
    8998:	79 09                	jns    89a3 <mod__ea__print__non_zero+0x3c>
    899a:	48 8d 1d 39 97 00 00 	lea    0x9739(%rip),%rbx        # 120da <_IO_stdin_used+0xda>
    89a1:	eb 07                	jmp    89aa <mod__ea__print__non_zero+0x43>
    89a3:	48 8d 1d 32 97 00 00 	lea    0x9732(%rip),%rbx        # 120dc <_IO_stdin_used+0xdc>
    89aa:	8b 45 ec             	mov    -0x14(%rbp),%eax
    89ad:	89 c7                	mov    %eax,%edi
    89af:	e8 53 ff ff ff       	call   8907 <effective_address_to_word>
    89b4:	48 89 c2             	mov    %rax,%rdx
    89b7:	48 8b 45 e0          	mov    -0x20(%rbp),%rax
    89bb:	45 89 e0             	mov    %r12d,%r8d
    89be:	48 89 d9             	mov    %rbx,%rcx
    89c1:	48 8d 35 16 97 00 00 	lea    0x9716(%rip),%rsi        # 120de <_IO_stdin_used+0xde>
    89c8:	48 89 c7             	mov    %rax,%rdi
    89cb:	b8 00 00 00 00       	mov    $0x0,%eax
    89d0:	e8 e5 89 00 00       	call   113ba <instruction__push>
    89d5:	90                   	nop
    89d6:	48 83 c4 10          	add    $0x10,%rsp
    89da:	5b                   	pop    %rbx
    89db:	41 5c                	pop    %r12
    89dd:	5d                   	pop    %rbp
    89de:	c3                   	ret    

00000000000089df <mod__ea__print__zero>:
    89df:	f3 0f 1e fa          	endbr64 
    89e3:	55                   	push   %rbp
    89e4:	48 89 e5             	mov    %rsp,%rbp
    89e7:	48 83 ec 10          	sub    $0x10,%rsp
    89eb:	89 7d fc             	mov    %edi,-0x4(%rbp)
    89ee:	89 f0                	mov    %esi,%eax
    89f0:	48 89 55 f0          	mov    %rdx,-0x10(%rbp)
    89f4:	66 89 45 f8          	mov    %ax,-0x8(%rbp)
    89f8:	8b 45 fc             	mov    -0x4(%rbp),%eax
    89fb:	89 c7                	mov    %eax,%edi
    89fd:	e8 05 ff ff ff       	call   8907 <effective_address_to_word>
    8a02:	48 89 c2             	mov    %rax,%rdx
    8a05:	48 8b 45 f0          	mov    -0x10(%rbp),%rax
    8a09:	48 8d 0d d9 96 00 00 	lea    0x96d9(%rip),%rcx        # 120e9 <_IO_stdin_used+0xe9>
    8a10:	48 89 ce             	mov    %rcx,%rsi
    8a13:	48 89 c7             	mov    %rax,%rdi
    8a16:	b8 00 00 00 00       	mov    $0x0,%eax
    8a1b:	e8 9a 89 00 00       	call   113ba <instruction__push>
    8a20:	90                   	nop
    8a21:	c9                   	leave  
    8a22:	c3                   	ret    

0000000000008a23 <opcode__mov_1000_10xx>:
    8a23:	f3 0f 1e fa          	endbr64 
    8a27:	55                   	push   %rbp
    8a28:	48 89 e5             	mov    %rsp,%rbp
    8a2b:	48 83 c4 80          	add    $0xffffffffffffff80,%rsp
    8a2f:	89 f8                	mov    %edi,%eax
    8a31:	48 89 75 80          	mov    %rsi,-0x80(%rbp)
    8a35:	88 45 8c             	mov    %al,-0x74(%rbp)
    8a38:	64 48 8b 04 25 28 00 	mov    %fs:0x28,%rax
    8a3f:	00 00 
    8a41:	48 89 45 f8          	mov    %rax,-0x8(%rbp)
    8a45:	31 c0                	xor    %eax,%eax
    8a47:	48 8b 45 80          	mov    -0x80(%rbp),%rax
    8a4b:	48 89 c7             	mov    %rax,%rdi
    8a4e:	e8 0b 89 00 00       	call   1135e <file_reader__read_bytes_so_far>
    8a53:	8d 50 ff             	lea    -0x1(%rax),%edx
    8a56:	48 8d 45 b0          	lea    -0x50(%rbp),%rax
    8a5a:	89 d6                	mov    %edx,%esi
    8a5c:	48 89 c7             	mov    %rax,%rdi
    8a5f:	e8 0f 89 00 00       	call   11373 <instruction__create>
    8a64:	48 8d 45 b0          	lea    -0x50(%rbp),%rax
    8a68:	48 8d 15 7f 96 00 00 	lea    0x967f(%rip),%rdx        # 120ee <_IO_stdin_used+0xee>
    8a6f:	48 89 d6             	mov    %rdx,%rsi
    8a72:	48 89 c7             	mov    %rax,%rdi
    8a75:	b8 00 00 00 00       	mov    $0x0,%eax
    8a7a:	e8 3b 89 00 00       	call   113ba <instruction__push>
    8a7f:	0f b6 45 8c          	movzbl -0x74(%rbp),%eax
    8a83:	d0 e8                	shr    %al
    8a85:	0f b6 c0             	movzbl %al,%eax
    8a88:	83 e0 01             	and    $0x1,%eax
    8a8b:	89 45 9c             	mov    %eax,-0x64(%rbp)
    8a8e:	0f b6 45 8c          	movzbl -0x74(%rbp),%eax
    8a92:	83 e0 01             	and    $0x1,%eax
    8a95:	89 45 a0             	mov    %eax,-0x60(%rbp)
    8a98:	48 8b 45 80          	mov    -0x80(%rbp),%rax
    8a9c:	48 8b 50 20          	mov    0x20(%rax),%rdx
    8aa0:	48 8b 45 80          	mov    -0x80(%rbp),%rax
    8aa4:	48 8d 4d 9b          	lea    -0x65(%rbp),%rcx
    8aa8:	48 89 ce             	mov    %rcx,%rsi
    8aab:	48 89 c7             	mov    %rax,%rdi
    8aae:	e8 ba 87 00 00       	call   1126d <file_reader__read_byte>
    8ab3:	0f b6 45 9b          	movzbl -0x65(%rbp),%eax
    8ab7:	c0 e8 06             	shr    $0x6,%al
    8aba:	0f b6 c0             	movzbl %al,%eax
    8abd:	83 e0 03             	and    $0x3,%eax
    8ac0:	89 45 a4             	mov    %eax,-0x5c(%rbp)
    8ac3:	0f b6 45 9b          	movzbl -0x65(%rbp),%eax
    8ac7:	c0 e8 03             	shr    $0x3,%al
    8aca:	0f b6 c0             	movzbl %al,%eax
    8acd:	83 e0 07             	and    $0x7,%eax
    8ad0:	89 45 a8             	mov    %eax,-0x58(%rbp)
    8ad3:	0f b6 45 9b          	movzbl -0x65(%rbp),%eax
    8ad7:	0f b6 c0             	movzbl %al,%eax
    8ada:	83 e0 07             	and    $0x7,%eax
    8add:	89 45 ac             	mov    %eax,-0x54(%rbp)
    8ae0:	8b 45 a4             	mov    -0x5c(%rbp),%eax
    8ae3:	48 98                	cltq   
    8ae5:	48 8d 14 c5 00 00 00 	lea    0x0(,%rax,8),%rdx
    8aec:	00 
    8aed:	48 8d 05 4c f1 00 00 	lea    0xf14c(%rip),%rax        # 17c40 <mod_handlers>
    8af4:	4c 8b 14 02          	mov    (%rdx,%rax,1),%r10
    8af8:	4c 8d 45 b0          	lea    -0x50(%rbp),%r8
    8afc:	48 8b 7d 80          	mov    -0x80(%rbp),%rdi
    8b00:	8b 4d ac             	mov    -0x54(%rbp),%ecx
    8b03:	8b 55 a8             	mov    -0x58(%rbp),%edx
    8b06:	8b 75 9c             	mov    -0x64(%rbp),%esi
    8b09:	8b 45 a0             	mov    -0x60(%rbp),%eax
    8b0c:	4d 89 c1             	mov    %r8,%r9
    8b0f:	49 89 f8             	mov    %rdi,%r8
    8b12:	89 c7                	mov    %eax,%edi
    8b14:	41 ff d2             	call   *%r10
    8b17:	48 8b 45 80          	mov    -0x80(%rbp),%rax
    8b1b:	48 83 c0 38          	add    $0x38,%rax
    8b1f:	ff 75 e8             	push   -0x18(%rbp)
    8b22:	ff 75 e0             	push   -0x20(%rbp)
    8b25:	ff 75 d8             	push   -0x28(%rbp)
    8b28:	ff 75 d0             	push   -0x30(%rbp)
    8b2b:	ff 75 c8             	push   -0x38(%rbp)
    8b2e:	ff 75 c0             	push   -0x40(%rbp)
    8b31:	ff 75 b8             	push   -0x48(%rbp)
    8b34:	ff 75 b0             	push   -0x50(%rbp)
    8b37:	48 89 c7             	mov    %rax,%rdi
    8b3a:	e8 59 8a 00 00       	call   11598 <instruction_list__push>
    8b3f:	48 83 c4 40          	add    $0x40,%rsp
    8b43:	90                   	nop
    8b44:	48 8b 45 f8          	mov    -0x8(%rbp),%rax
    8b48:	64 48 2b 04 25 28 00 	sub    %fs:0x28,%rax
    8b4f:	00 00 
    8b51:	74 05                	je     8b58 <opcode__mov_1000_10xx+0x135>
    8b53:	e8 18 f6 ff ff       	call   8170 <__stack_chk_fail@plt>
    8b58:	c9                   	leave  
    8b59:	c3                   	ret    

0000000000008b5a <opcode__mov_1100_011x>:
    8b5a:	f3 0f 1e fa          	endbr64 
    8b5e:	55                   	push   %rbp
    8b5f:	48 89 e5             	mov    %rsp,%rbp
    8b62:	48 83 ec 70          	sub    $0x70,%rsp
    8b66:	89 f8                	mov    %edi,%eax
    8b68:	48 89 75 90          	mov    %rsi,-0x70(%rbp)
    8b6c:	88 45 9c             	mov    %al,-0x64(%rbp)
    8b6f:	64 48 8b 04 25 28 00 	mov    %fs:0x28,%rax
    8b76:	00 00 
    8b78:	48 89 45 f8          	mov    %rax,-0x8(%rbp)
    8b7c:	31 c0                	xor    %eax,%eax
    8b7e:	48 8b 45 90          	mov    -0x70(%rbp),%rax
    8b82:	48 89 c7             	mov    %rax,%rdi
    8b85:	e8 d4 87 00 00       	call   1135e <file_reader__read_bytes_so_far>
    8b8a:	8d 50 ff             	lea    -0x1(%rax),%edx
    8b8d:	48 8d 45 b0          	lea    -0x50(%rbp),%rax
    8b91:	89 d6                	mov    %edx,%esi
    8b93:	48 89 c7             	mov    %rax,%rdi
    8b96:	e8 d8 87 00 00       	call   11373 <instruction__create>
    8b9b:	48 8d 45 b0          	lea    -0x50(%rbp),%rax
    8b9f:	48 8d 15 48 95 00 00 	lea    0x9548(%rip),%rdx        # 120ee <_IO_stdin_used+0xee>
    8ba6:	48 89 d6             	mov    %rdx,%rsi
    8ba9:	48 89 c7             	mov    %rax,%rdi
    8bac:	b8 00 00 00 00       	mov    $0x0,%eax
    8bb1:	e8 04 88 00 00       	call   113ba <instruction__push>
    8bb6:	48 8b 45 90          	mov    -0x70(%rbp),%rax
    8bba:	48 8b 50 20          	mov    0x20(%rax),%rdx
    8bbe:	48 8b 45 90          	mov    -0x70(%rbp),%rax
    8bc2:	48 8d 4d a3          	lea    -0x5d(%rbp),%rcx
    8bc6:	48 89 ce             	mov    %rcx,%rsi
    8bc9:	48 89 c7             	mov    %rax,%rdi
    8bcc:	e8 9c 86 00 00       	call   1126d <file_reader__read_byte>
    8bd1:	0f b6 45 9c          	movzbl -0x64(%rbp),%eax
    8bd5:	83 e0 01             	and    $0x1,%eax
    8bd8:	89 45 a4             	mov    %eax,-0x5c(%rbp)
    8bdb:	0f b6 45 a3          	movzbl -0x5d(%rbp),%eax
    8bdf:	c0 e8 06             	shr    $0x6,%al
    8be2:	0f b6 c0             	movzbl %al,%eax
    8be5:	83 e0 03             	and    $0x3,%eax
    8be8:	89 45 a8             	mov    %eax,-0x58(%rbp)
    8beb:	0f b6 45 a3          	movzbl -0x5d(%rbp),%eax
    8bef:	0f b6 c0             	movzbl %al,%eax
    8bf2:	83 e0 07             	and    $0x7,%eax
    8bf5:	89 45 ac             	mov    %eax,-0x54(%rbp)
    8bf8:	8b 45 a8             	mov    -0x58(%rbp),%eax
    8bfb:	48 98                	cltq   
    8bfd:	48 8d 14 c5 00 00 00 	lea    0x0(,%rax,8),%rdx
    8c04:	00 
    8c05:	48 8d 05 54 f0 00 00 	lea    0xf054(%rip),%rax        # 17c60 <mod_immediate_handlers>
    8c0c:	4c 8b 04 02          	mov    (%rdx,%rax,1),%r8
    8c10:	48 8d 4d b0          	lea    -0x50(%rbp),%rcx
    8c14:	48 8b 55 90          	mov    -0x70(%rbp),%rdx
    8c18:	8b 75 ac             	mov    -0x54(%rbp),%esi
    8c1b:	8b 45 a4             	mov    -0x5c(%rbp),%eax
    8c1e:	89 c7                	mov    %eax,%edi
    8c20:	41 ff d0             	call   *%r8
    8c23:	48 8b 45 90          	mov    -0x70(%rbp),%rax
    8c27:	48 83 c0 38          	add    $0x38,%rax
    8c2b:	ff 75 e8             	push   -0x18(%rbp)
    8c2e:	ff 75 e0             	push   -0x20(%rbp)
    8c31:	ff 75 d8             	push   -0x28(%rbp)
    8c34:	ff 75 d0             	push   -0x30(%rbp)
    8c37:	ff 75 c8             	push   -0x38(%rbp)
    8c3a:	ff 75 c0             	push   -0x40(%rbp)
    8c3d:	ff 75 b8             	push   -0x48(%rbp)
    8c40:	ff 75 b0             	push   -0x50(%rbp)
    8c43:	48 89 c7             	mov    %rax,%rdi
    8c46:	e8 4d 89 00 00       	call   11598 <instruction_list__push>
    8c4b:	48 83 c4 40          	add    $0x40,%rsp
    8c4f:	90                   	nop
    8c50:	48 8b 45 f8          	mov    -0x8(%rbp),%rax
    8c54:	64 48 2b 04 25 28 00 	sub    %fs:0x28,%rax
    8c5b:	00 00 
    8c5d:	74 05                	je     8c64 <opcode__mov_1100_011x+0x10a>
    8c5f:	e8 0c f5 ff ff       	call   8170 <__stack_chk_fail@plt>
    8c64:	c9                   	leave  
    8c65:	c3                   	ret    

0000000000008c66 <opcode__mov_1011_xxxx>:
    8c66:	f3 0f 1e fa          	endbr64 
    8c6a:	55                   	push   %rbp
    8c6b:	48 89 e5             	mov    %rsp,%rbp
    8c6e:	53                   	push   %rbx
    8c6f:	48 83 ec 78          	sub    $0x78,%rsp
    8c73:	89 f8                	mov    %edi,%eax
    8c75:	48 89 75 80          	mov    %rsi,-0x80(%rbp)
    8c79:	88 45 8c             	mov    %al,-0x74(%rbp)
    8c7c:	64 48 8b 04 25 28 00 	mov    %fs:0x28,%rax
    8c83:	00 00 
    8c85:	48 89 45 e8          	mov    %rax,-0x18(%rbp)
    8c89:	31 c0                	xor    %eax,%eax
    8c8b:	48 8b 45 80          	mov    -0x80(%rbp),%rax
    8c8f:	48 89 c7             	mov    %rax,%rdi
    8c92:	e8 c7 86 00 00       	call   1135e <file_reader__read_bytes_so_far>
    8c97:	8d 50 ff             	lea    -0x1(%rax),%edx
    8c9a:	48 8d 45 a0          	lea    -0x60(%rbp),%rax
    8c9e:	89 d6                	mov    %edx,%esi
    8ca0:	48 89 c7             	mov    %rax,%rdi
    8ca3:	e8 cb 86 00 00       	call   11373 <instruction__create>
    8ca8:	48 8d 45 a0          	lea    -0x60(%rbp),%rax
    8cac:	48 8d 15 3b 94 00 00 	lea    0x943b(%rip),%rdx        # 120ee <_IO_stdin_used+0xee>
    8cb3:	48 89 d6             	mov    %rdx,%rsi
    8cb6:	48 89 c7             	mov    %rax,%rdi
    8cb9:	b8 00 00 00 00       	mov    $0x0,%eax
    8cbe:	e8 f7 86 00 00       	call   113ba <instruction__push>
    8cc3:	0f b6 45 8c          	movzbl -0x74(%rbp),%eax
    8cc7:	c0 e8 03             	shr    $0x3,%al
    8cca:	0f b6 c0             	movzbl %al,%eax
    8ccd:	83 e0 01             	and    $0x1,%eax
    8cd0:	89 45 98             	mov    %eax,-0x68(%rbp)
    8cd3:	0f b6 45 8c          	movzbl -0x74(%rbp),%eax
    8cd7:	83 e0 07             	and    $0x7,%eax
    8cda:	89 45 9c             	mov    %eax,-0x64(%rbp)
    8cdd:	66 c7 45 96 00 00    	movw   $0x0,-0x6a(%rbp)
    8ce3:	8b 45 98             	mov    -0x68(%rbp),%eax
    8ce6:	48 98                	cltq   
    8ce8:	48 8d 14 c5 00 00 00 	lea    0x0(,%rax,8),%rdx
    8cef:	00 
    8cf0:	48 8d 05 e9 ee 00 00 	lea    0xeee9(%rip),%rax        # 17be0 <file_reader__read_by_type>
    8cf7:	4c 8b 04 02          	mov    (%rdx,%rax,1),%r8
    8cfb:	48 8b 45 80          	mov    -0x80(%rbp),%rax
    8cff:	48 8b 50 20          	mov    0x20(%rax),%rdx
    8d03:	48 8b 45 80          	mov    -0x80(%rbp),%rax
    8d07:	48 8d 4d 96          	lea    -0x6a(%rbp),%rcx
    8d0b:	48 89 ce             	mov    %rcx,%rsi
    8d0e:	48 89 c7             	mov    %rax,%rdi
    8d11:	41 ff d0             	call   *%r8
    8d14:	0f b7 45 96          	movzwl -0x6a(%rbp),%eax
    8d18:	0f b7 d8             	movzwl %ax,%ebx
    8d1b:	8b 45 9c             	mov    -0x64(%rbp),%eax
    8d1e:	8b 55 98             	mov    -0x68(%rbp),%edx
    8d21:	89 d6                	mov    %edx,%esi
    8d23:	89 c7                	mov    %eax,%edi
    8d25:	e8 af fb ff ff       	call   88d9 <reg_to_word>
    8d2a:	48 89 c2             	mov    %rax,%rdx
    8d2d:	48 8d 45 a0          	lea    -0x60(%rbp),%rax
    8d31:	89 d9                	mov    %ebx,%ecx
    8d33:	48 8d 35 b9 93 00 00 	lea    0x93b9(%rip),%rsi        # 120f3 <_IO_stdin_used+0xf3>
    8d3a:	48 89 c7             	mov    %rax,%rdi
    8d3d:	b8 00 00 00 00       	mov    $0x0,%eax
    8d42:	e8 73 86 00 00       	call   113ba <instruction__push>
    8d47:	48 8b 45 80          	mov    -0x80(%rbp),%rax
    8d4b:	48 83 c0 38          	add    $0x38,%rax
    8d4f:	ff 75 d8             	push   -0x28(%rbp)
    8d52:	ff 75 d0             	push   -0x30(%rbp)
    8d55:	ff 75 c8             	push   -0x38(%rbp)
    8d58:	ff 75 c0             	push   -0x40(%rbp)
    8d5b:	ff 75 b8             	push   -0x48(%rbp)
    8d5e:	ff 75 b0             	push   -0x50(%rbp)
    8d61:	ff 75 a8             	push   -0x58(%rbp)
    8d64:	ff 75 a0             	push   -0x60(%rbp)
    8d67:	48 89 c7             	mov    %rax,%rdi
    8d6a:	e8 29 88 00 00       	call   11598 <instruction_list__push>
    8d6f:	48 83 c4 40          	add    $0x40,%rsp
    8d73:	90                   	nop
    8d74:	48 8b 45 e8          	mov    -0x18(%rbp),%rax
    8d78:	64 48 2b 04 25 28 00 	sub    %fs:0x28,%rax
    8d7f:	00 00 
    8d81:	74 05                	je     8d88 <opcode__mov_1011_xxxx+0x122>
    8d83:	e8 e8 f3 ff ff       	call   8170 <__stack_chk_fail@plt>
    8d88:	48 8b 5d f8          	mov    -0x8(%rbp),%rbx
    8d8c:	c9                   	leave  
    8d8d:	c3                   	ret    

0000000000008d8e <opcode__mov_1010_000x>:
    8d8e:	f3 0f 1e fa          	endbr64 
    8d92:	55                   	push   %rbp
    8d93:	48 89 e5             	mov    %rsp,%rbp
    8d96:	53                   	push   %rbx
    8d97:	48 83 ec 78          	sub    $0x78,%rsp
    8d9b:	89 f8                	mov    %edi,%eax
    8d9d:	48 89 75 80          	mov    %rsi,-0x80(%rbp)
    8da1:	88 45 8c             	mov    %al,-0x74(%rbp)
    8da4:	64 48 8b 04 25 28 00 	mov    %fs:0x28,%rax
    8dab:	00 00 
    8dad:	48 89 45 e8          	mov    %rax,-0x18(%rbp)
    8db1:	31 c0                	xor    %eax,%eax
    8db3:	48 8b 45 80          	mov    -0x80(%rbp),%rax
    8db7:	48 89 c7             	mov    %rax,%rdi
    8dba:	e8 9f 85 00 00       	call   1135e <file_reader__read_bytes_so_far>
    8dbf:	8d 50 ff             	lea    -0x1(%rax),%edx
    8dc2:	48 8d 45 a0          	lea    -0x60(%rbp),%rax
    8dc6:	89 d6                	mov    %edx,%esi
    8dc8:	48 89 c7             	mov    %rax,%rdi
    8dcb:	e8 a3 85 00 00       	call   11373 <instruction__create>
    8dd0:	48 8d 45 a0          	lea    -0x60(%rbp),%rax
    8dd4:	48 8d 15 13 93 00 00 	lea    0x9313(%rip),%rdx        # 120ee <_IO_stdin_used+0xee>
    8ddb:	48 89 d6             	mov    %rdx,%rsi
    8dde:	48 89 c7             	mov    %rax,%rdi
    8de1:	b8 00 00 00 00       	mov    $0x0,%eax
    8de6:	e8 cf 85 00 00       	call   113ba <instruction__push>
    8deb:	0f b6 45 8c          	movzbl -0x74(%rbp),%eax
    8def:	83 e0 01             	and    $0x1,%eax
    8df2:	89 45 9c             	mov    %eax,-0x64(%rbp)
    8df5:	66 c7 45 9a 00 00    	movw   $0x0,-0x66(%rbp)
    8dfb:	48 8b 45 80          	mov    -0x80(%rbp),%rax
    8dff:	48 8b 50 20          	mov    0x20(%rax),%rdx
    8e03:	48 8b 45 80          	mov    -0x80(%rbp),%rax
    8e07:	48 8d 4d 9a          	lea    -0x66(%rbp),%rcx
    8e0b:	48 89 ce             	mov    %rcx,%rsi
    8e0e:	48 89 c7             	mov    %rax,%rdi
    8e11:	e8 fb 84 00 00       	call   11311 <file_reader__read_word>
    8e16:	0f b7 45 9a          	movzwl -0x66(%rbp),%eax
    8e1a:	0f b7 d8             	movzwl %ax,%ebx
    8e1d:	8b 45 9c             	mov    -0x64(%rbp),%eax
    8e20:	89 c6                	mov    %eax,%esi
    8e22:	bf 00 00 00 00       	mov    $0x0,%edi
    8e27:	e8 ad fa ff ff       	call   88d9 <reg_to_word>
    8e2c:	48 89 c2             	mov    %rax,%rdx
    8e2f:	48 8d 45 a0          	lea    -0x60(%rbp),%rax
    8e33:	89 d9                	mov    %ebx,%ecx
    8e35:	48 8d 35 be 92 00 00 	lea    0x92be(%rip),%rsi        # 120fa <_IO_stdin_used+0xfa>
    8e3c:	48 89 c7             	mov    %rax,%rdi
    8e3f:	b8 00 00 00 00       	mov    $0x0,%eax
    8e44:	e8 71 85 00 00       	call   113ba <instruction__push>
    8e49:	48 8b 45 80          	mov    -0x80(%rbp),%rax
    8e4d:	48 83 c0 38          	add    $0x38,%rax
    8e51:	ff 75 d8             	push   -0x28(%rbp)
    8e54:	ff 75 d0             	push   -0x30(%rbp)
    8e57:	ff 75 c8             	push   -0x38(%rbp)
    8e5a:	ff 75 c0             	push   -0x40(%rbp)
    8e5d:	ff 75 b8             	push   -0x48(%rbp)
    8e60:	ff 75 b0             	push   -0x50(%rbp)
    8e63:	ff 75 a8             	push   -0x58(%rbp)
    8e66:	ff 75 a0             	push   -0x60(%rbp)
    8e69:	48 89 c7             	mov    %rax,%rdi
    8e6c:	e8 27 87 00 00       	call   11598 <instruction_list__push>
    8e71:	48 83 c4 40          	add    $0x40,%rsp
    8e75:	90                   	nop
    8e76:	48 8b 45 e8          	mov    -0x18(%rbp),%rax
    8e7a:	64 48 2b 04 25 28 00 	sub    %fs:0x28,%rax
    8e81:	00 00 
    8e83:	74 05                	je     8e8a <opcode__mov_1010_000x+0xfc>
    8e85:	e8 e6 f2 ff ff       	call   8170 <__stack_chk_fail@plt>
    8e8a:	48 8b 5d f8          	mov    -0x8(%rbp),%rbx
    8e8e:	c9                   	leave  
    8e8f:	c3                   	ret    

0000000000008e90 <opcode__mov_1010_001x>:
    8e90:	f3 0f 1e fa          	endbr64 
    8e94:	55                   	push   %rbp
    8e95:	48 89 e5             	mov    %rsp,%rbp
    8e98:	48 83 ec 70          	sub    $0x70,%rsp
    8e9c:	89 f8                	mov    %edi,%eax
    8e9e:	48 89 75 90          	mov    %rsi,-0x70(%rbp)
    8ea2:	88 45 9c             	mov    %al,-0x64(%rbp)
    8ea5:	64 48 8b 04 25 28 00 	mov    %fs:0x28,%rax
    8eac:	00 00 
    8eae:	48 89 45 f8          	mov    %rax,-0x8(%rbp)
    8eb2:	31 c0                	xor    %eax,%eax
    8eb4:	48 8b 45 90          	mov    -0x70(%rbp),%rax
    8eb8:	48 89 c7             	mov    %rax,%rdi
    8ebb:	e8 9e 84 00 00       	call   1135e <file_reader__read_bytes_so_far>
    8ec0:	8d 50 ff             	lea    -0x1(%rax),%edx
    8ec3:	48 8d 45 b0          	lea    -0x50(%rbp),%rax
    8ec7:	89 d6                	mov    %edx,%esi
    8ec9:	48 89 c7             	mov    %rax,%rdi
    8ecc:	e8 a2 84 00 00       	call   11373 <instruction__create>
    8ed1:	48 8d 45 b0          	lea    -0x50(%rbp),%rax
    8ed5:	48 8d 15 12 92 00 00 	lea    0x9212(%rip),%rdx        # 120ee <_IO_stdin_used+0xee>
    8edc:	48 89 d6             	mov    %rdx,%rsi
    8edf:	48 89 c7             	mov    %rax,%rdi
    8ee2:	b8 00 00 00 00       	mov    $0x0,%eax
    8ee7:	e8 ce 84 00 00       	call   113ba <instruction__push>
    8eec:	0f b6 45 9c          	movzbl -0x64(%rbp),%eax
    8ef0:	83 e0 01             	and    $0x1,%eax
    8ef3:	89 45 ac             	mov    %eax,-0x54(%rbp)
    8ef6:	66 c7 45 aa 00 00    	movw   $0x0,-0x56(%rbp)
    8efc:	48 8b 45 90          	mov    -0x70(%rbp),%rax
    8f00:	48 8b 50 20          	mov    0x20(%rax),%rdx
    8f04:	48 8b 45 90          	mov    -0x70(%rbp),%rax
    8f08:	48 8d 4d aa          	lea    -0x56(%rbp),%rcx
    8f0c:	48 89 ce             	mov    %rcx,%rsi
    8f0f:	48 89 c7             	mov    %rax,%rdi
    8f12:	e8 fa 83 00 00       	call   11311 <file_reader__read_word>
    8f17:	8b 45 ac             	mov    -0x54(%rbp),%eax
    8f1a:	89 c6                	mov    %eax,%esi
    8f1c:	bf 00 00 00 00       	mov    $0x0,%edi
    8f21:	e8 b3 f9 ff ff       	call   88d9 <reg_to_word>
    8f26:	48 89 c1             	mov    %rax,%rcx
    8f29:	0f b7 45 aa          	movzwl -0x56(%rbp),%eax
    8f2d:	0f b7 d0             	movzwl %ax,%edx
    8f30:	48 8d 45 b0          	lea    -0x50(%rbp),%rax
    8f34:	48 8d 35 c8 91 00 00 	lea    0x91c8(%rip),%rsi        # 12103 <_IO_stdin_used+0x103>
    8f3b:	48 89 c7             	mov    %rax,%rdi
    8f3e:	b8 00 00 00 00       	mov    $0x0,%eax
    8f43:	e8 72 84 00 00       	call   113ba <instruction__push>
    8f48:	48 8b 45 90          	mov    -0x70(%rbp),%rax
    8f4c:	48 83 c0 38          	add    $0x38,%rax
    8f50:	ff 75 e8             	push   -0x18(%rbp)
    8f53:	ff 75 e0             	push   -0x20(%rbp)
    8f56:	ff 75 d8             	push   -0x28(%rbp)
    8f59:	ff 75 d0             	push   -0x30(%rbp)
    8f5c:	ff 75 c8             	push   -0x38(%rbp)
    8f5f:	ff 75 c0             	push   -0x40(%rbp)
    8f62:	ff 75 b8             	push   -0x48(%rbp)
    8f65:	ff 75 b0             	push   -0x50(%rbp)
    8f68:	48 89 c7             	mov    %rax,%rdi
    8f6b:	e8 28 86 00 00       	call   11598 <instruction_list__push>
    8f70:	48 83 c4 40          	add    $0x40,%rsp
    8f74:	90                   	nop
    8f75:	48 8b 45 f8          	mov    -0x8(%rbp),%rax
    8f79:	64 48 2b 04 25 28 00 	sub    %fs:0x28,%rax
    8f80:	00 00 
    8f82:	74 05                	je     8f89 <opcode__mov_1010_001x+0xf9>
    8f84:	e8 e7 f1 ff ff       	call   8170 <__stack_chk_fail@plt>
    8f89:	c9                   	leave  
    8f8a:	c3                   	ret    

0000000000008f8b <opcode__mov_1000_1110>:
    8f8b:	f3 0f 1e fa          	endbr64 
    8f8f:	55                   	push   %rbp
    8f90:	48 89 e5             	mov    %rsp,%rbp
    8f93:	48 83 ec 60          	sub    $0x60,%rsp
    8f97:	89 f8                	mov    %edi,%eax
    8f99:	48 89 75 a0          	mov    %rsi,-0x60(%rbp)
    8f9d:	88 45 ac             	mov    %al,-0x54(%rbp)
    8fa0:	64 48 8b 04 25 28 00 	mov    %fs:0x28,%rax
    8fa7:	00 00 
    8fa9:	48 89 45 f8          	mov    %rax,-0x8(%rbp)
    8fad:	31 c0                	xor    %eax,%eax
    8faf:	48 8b 45 a0          	mov    -0x60(%rbp),%rax
    8fb3:	48 89 c7             	mov    %rax,%rdi
    8fb6:	e8 a3 83 00 00       	call   1135e <file_reader__read_bytes_so_far>
    8fbb:	8d 50 ff             	lea    -0x1(%rax),%edx
    8fbe:	48 8d 45 b0          	lea    -0x50(%rbp),%rax
    8fc2:	89 d6                	mov    %edx,%esi
    8fc4:	48 89 c7             	mov    %rax,%rdi
    8fc7:	e8 a7 83 00 00       	call   11373 <instruction__create>
    8fcc:	48 8d 45 b0          	lea    -0x50(%rbp),%rax
    8fd0:	48 8d 15 17 91 00 00 	lea    0x9117(%rip),%rdx        # 120ee <_IO_stdin_used+0xee>
    8fd7:	48 89 d6             	mov    %rdx,%rsi
    8fda:	48 89 c7             	mov    %rax,%rdi
    8fdd:	b8 00 00 00 00       	mov    $0x0,%eax
    8fe2:	e8 d3 83 00 00       	call   113ba <instruction__push>
    8fe7:	48 8d 05 52 94 00 00 	lea    0x9452(%rip),%rax        # 12440 <__PRETTY_FUNCTION__.38>
    8fee:	48 89 c1             	mov    %rax,%rcx
    8ff1:	ba b6 00 00 00       	mov    $0xb6,%edx
    8ff6:	48 8d 05 0f 91 00 00 	lea    0x910f(%rip),%rax        # 1210c <_IO_stdin_used+0x10c>
    8ffd:	48 89 c6             	mov    %rax,%rsi
    9000:	48 8d 05 19 91 00 00 	lea    0x9119(%rip),%rax        # 12120 <_IO_stdin_used+0x120>
    9007:	48 89 c7             	mov    %rax,%rdi
    900a:	e8 81 f1 ff ff       	call   8190 <__assert_fail@plt>

000000000000900f <opcode__mov_1000_1100>:
    900f:	f3 0f 1e fa          	endbr64 
    9013:	55                   	push   %rbp
    9014:	48 89 e5             	mov    %rsp,%rbp
    9017:	48 83 ec 60          	sub    $0x60,%rsp
    901b:	89 f8                	mov    %edi,%eax
    901d:	48 89 75 a0          	mov    %rsi,-0x60(%rbp)
    9021:	88 45 ac             	mov    %al,-0x54(%rbp)
    9024:	64 48 8b 04 25 28 00 	mov    %fs:0x28,%rax
    902b:	00 00 
    902d:	48 89 45 f8          	mov    %rax,-0x8(%rbp)
    9031:	31 c0                	xor    %eax,%eax
    9033:	48 8b 45 a0          	mov    -0x60(%rbp),%rax
    9037:	48 89 c7             	mov    %rax,%rdi
    903a:	e8 1f 83 00 00       	call   1135e <file_reader__read_bytes_so_far>
    903f:	8d 50 ff             	lea    -0x1(%rax),%edx
    9042:	48 8d 45 b0          	lea    -0x50(%rbp),%rax
    9046:	89 d6                	mov    %edx,%esi
    9048:	48 89 c7             	mov    %rax,%rdi
    904b:	e8 23 83 00 00       	call   11373 <instruction__create>
    9050:	48 8d 45 b0          	lea    -0x50(%rbp),%rax
    9054:	48 8d 15 93 90 00 00 	lea    0x9093(%rip),%rdx        # 120ee <_IO_stdin_used+0xee>
    905b:	48 89 d6             	mov    %rdx,%rsi
    905e:	48 89 c7             	mov    %rax,%rdi
    9061:	b8 00 00 00 00       	mov    $0x0,%eax
    9066:	e8 4f 83 00 00       	call   113ba <instruction__push>
    906b:	48 8d 05 ee 93 00 00 	lea    0x93ee(%rip),%rax        # 12460 <__PRETTY_FUNCTION__.37>
    9072:	48 89 c1             	mov    %rax,%rcx
    9075:	ba ce 00 00 00       	mov    $0xce,%edx
    907a:	48 8d 05 8b 90 00 00 	lea    0x908b(%rip),%rax        # 1210c <_IO_stdin_used+0x10c>
    9081:	48 89 c6             	mov    %rax,%rsi
    9084:	48 8d 05 95 90 00 00 	lea    0x9095(%rip),%rax        # 12120 <_IO_stdin_used+0x120>
    908b:	48 89 c7             	mov    %rax,%rdi
    908e:	e8 fd f0 ff ff       	call   8190 <__assert_fail@plt>

0000000000009093 <opcode__cont_push_1111_1111>:
    9093:	f3 0f 1e fa          	endbr64 
    9097:	55                   	push   %rbp
    9098:	48 89 e5             	mov    %rsp,%rbp
    909b:	48 83 ec 70          	sub    $0x70,%rsp
    909f:	89 f9                	mov    %edi,%ecx
    90a1:	89 f0                	mov    %esi,%eax
    90a3:	48 89 55 90          	mov    %rdx,-0x70(%rbp)
    90a7:	89 ca                	mov    %ecx,%edx
    90a9:	88 55 9c             	mov    %dl,-0x64(%rbp)
    90ac:	88 45 98             	mov    %al,-0x68(%rbp)
    90af:	64 48 8b 04 25 28 00 	mov    %fs:0x28,%rax
    90b6:	00 00 
    90b8:	48 89 45 f8          	mov    %rax,-0x8(%rbp)
    90bc:	31 c0                	xor    %eax,%eax
    90be:	48 8b 45 90          	mov    -0x70(%rbp),%rax
    90c2:	48 89 c7             	mov    %rax,%rdi
    90c5:	e8 94 82 00 00       	call   1135e <file_reader__read_bytes_so_far>
    90ca:	8d 50 ff             	lea    -0x1(%rax),%edx
    90cd:	48 8d 45 b0          	lea    -0x50(%rbp),%rax
    90d1:	89 d6                	mov    %edx,%esi
    90d3:	48 89 c7             	mov    %rax,%rdi
    90d6:	e8 98 82 00 00       	call   11373 <instruction__create>
    90db:	48 8d 45 b0          	lea    -0x50(%rbp),%rax
    90df:	48 8d 15 70 90 00 00 	lea    0x9070(%rip),%rdx        # 12156 <_IO_stdin_used+0x156>
    90e6:	48 89 d6             	mov    %rdx,%rsi
    90e9:	48 89 c7             	mov    %rax,%rdi
    90ec:	b8 00 00 00 00       	mov    $0x0,%eax
    90f1:	e8 c4 82 00 00       	call   113ba <instruction__push>
    90f6:	0f b6 45 98          	movzbl -0x68(%rbp),%eax
    90fa:	c0 e8 06             	shr    $0x6,%al
    90fd:	0f b6 c0             	movzbl %al,%eax
    9100:	83 e0 03             	and    $0x3,%eax
    9103:	89 45 a8             	mov    %eax,-0x58(%rbp)
    9106:	0f b6 45 98          	movzbl -0x68(%rbp),%eax
    910a:	83 e0 07             	and    $0x7,%eax
    910d:	89 45 ac             	mov    %eax,-0x54(%rbp)
    9110:	8b 45 a8             	mov    -0x58(%rbp),%eax
    9113:	48 98                	cltq   
    9115:	48 8d 14 c5 00 00 00 	lea    0x0(,%rax,8),%rdx
    911c:	00 
    911d:	48 8d 05 7c eb 00 00 	lea    0xeb7c(%rip),%rax        # 17ca0 <mod_source_only_handlers>
    9124:	4c 8b 04 02          	mov    (%rdx,%rax,1),%r8
    9128:	48 8d 4d b0          	lea    -0x50(%rbp),%rcx
    912c:	48 8b 55 90          	mov    -0x70(%rbp),%rdx
    9130:	8b 45 ac             	mov    -0x54(%rbp),%eax
    9133:	89 c6                	mov    %eax,%esi
    9135:	bf 01 00 00 00       	mov    $0x1,%edi
    913a:	41 ff d0             	call   *%r8
    913d:	48 8b 45 90          	mov    -0x70(%rbp),%rax
    9141:	48 83 c0 38          	add    $0x38,%rax
    9145:	ff 75 e8             	push   -0x18(%rbp)
    9148:	ff 75 e0             	push   -0x20(%rbp)
    914b:	ff 75 d8             	push   -0x28(%rbp)
    914e:	ff 75 d0             	push   -0x30(%rbp)
    9151:	ff 75 c8             	push   -0x38(%rbp)
    9154:	ff 75 c0             	push   -0x40(%rbp)
    9157:	ff 75 b8             	push   -0x48(%rbp)
    915a:	ff 75 b0             	push   -0x50(%rbp)
    915d:	48 89 c7             	mov    %rax,%rdi
    9160:	e8 33 84 00 00       	call   11598 <instruction_list__push>
    9165:	48 83 c4 40          	add    $0x40,%rsp
    9169:	90                   	nop
    916a:	48 8b 45 f8          	mov    -0x8(%rbp),%rax
    916e:	64 48 2b 04 25 28 00 	sub    %fs:0x28,%rax
    9175:	00 00 
    9177:	74 05                	je     917e <opcode__cont_push_1111_1111+0xeb>
    9179:	e8 f2 ef ff ff       	call   8170 <__stack_chk_fail@plt>
    917e:	c9                   	leave  
    917f:	c3                   	ret    

0000000000009180 <opcode__push_0101_0xxx>:
    9180:	f3 0f 1e fa          	endbr64 
    9184:	55                   	push   %rbp
    9185:	48 89 e5             	mov    %rsp,%rbp
    9188:	48 83 ec 70          	sub    $0x70,%rsp
    918c:	89 f8                	mov    %edi,%eax
    918e:	48 89 75 90          	mov    %rsi,-0x70(%rbp)
    9192:	88 45 9c             	mov    %al,-0x64(%rbp)
    9195:	64 48 8b 04 25 28 00 	mov    %fs:0x28,%rax
    919c:	00 00 
    919e:	48 89 45 f8          	mov    %rax,-0x8(%rbp)
    91a2:	31 c0                	xor    %eax,%eax
    91a4:	48 8b 45 90          	mov    -0x70(%rbp),%rax
    91a8:	48 89 c7             	mov    %rax,%rdi
    91ab:	e8 ae 81 00 00       	call   1135e <file_reader__read_bytes_so_far>
    91b0:	8d 50 ff             	lea    -0x1(%rax),%edx
    91b3:	48 8d 45 b0          	lea    -0x50(%rbp),%rax
    91b7:	89 d6                	mov    %edx,%esi
    91b9:	48 89 c7             	mov    %rax,%rdi
    91bc:	e8 b2 81 00 00       	call   11373 <instruction__create>
    91c1:	48 8d 45 b0          	lea    -0x50(%rbp),%rax
    91c5:	48 8d 15 8a 8f 00 00 	lea    0x8f8a(%rip),%rdx        # 12156 <_IO_stdin_used+0x156>
    91cc:	48 89 d6             	mov    %rdx,%rsi
    91cf:	48 89 c7             	mov    %rax,%rdi
    91d2:	b8 00 00 00 00       	mov    $0x0,%eax
    91d7:	e8 de 81 00 00       	call   113ba <instruction__push>
    91dc:	0f b6 45 9c          	movzbl -0x64(%rbp),%eax
    91e0:	83 e0 07             	and    $0x7,%eax
    91e3:	89 45 ac             	mov    %eax,-0x54(%rbp)
    91e6:	8b 45 ac             	mov    -0x54(%rbp),%eax
    91e9:	be 01 00 00 00       	mov    $0x1,%esi
    91ee:	89 c7                	mov    %eax,%edi
    91f0:	e8 e4 f6 ff ff       	call   88d9 <reg_to_word>
    91f5:	48 89 c2             	mov    %rax,%rdx
    91f8:	48 8d 45 b0          	lea    -0x50(%rbp),%rax
    91fc:	48 8d 0d 59 8f 00 00 	lea    0x8f59(%rip),%rcx        # 1215c <_IO_stdin_used+0x15c>
    9203:	48 89 ce             	mov    %rcx,%rsi
    9206:	48 89 c7             	mov    %rax,%rdi
    9209:	b8 00 00 00 00       	mov    $0x0,%eax
    920e:	e8 a7 81 00 00       	call   113ba <instruction__push>
    9213:	48 8b 45 90          	mov    -0x70(%rbp),%rax
    9217:	48 83 c0 38          	add    $0x38,%rax
    921b:	ff 75 e8             	push   -0x18(%rbp)
    921e:	ff 75 e0             	push   -0x20(%rbp)
    9221:	ff 75 d8             	push   -0x28(%rbp)
    9224:	ff 75 d0             	push   -0x30(%rbp)
    9227:	ff 75 c8             	push   -0x38(%rbp)
    922a:	ff 75 c0             	push   -0x40(%rbp)
    922d:	ff 75 b8             	push   -0x48(%rbp)
    9230:	ff 75 b0             	push   -0x50(%rbp)
    9233:	48 89 c7             	mov    %rax,%rdi
    9236:	e8 5d 83 00 00       	call   11598 <instruction_list__push>
    923b:	48 83 c4 40          	add    $0x40,%rsp
    923f:	90                   	nop
    9240:	48 8b 45 f8          	mov    -0x8(%rbp),%rax
    9244:	64 48 2b 04 25 28 00 	sub    %fs:0x28,%rax
    924b:	00 00 
    924d:	74 05                	je     9254 <opcode__push_0101_0xxx+0xd4>
    924f:	e8 1c ef ff ff       	call   8170 <__stack_chk_fail@plt>
    9254:	c9                   	leave  
    9255:	c3                   	ret    

0000000000009256 <opcode__push_000x_x110>:
    9256:	f3 0f 1e fa          	endbr64 
    925a:	55                   	push   %rbp
    925b:	48 89 e5             	mov    %rsp,%rbp
    925e:	48 83 ec 70          	sub    $0x70,%rsp
    9262:	89 f8                	mov    %edi,%eax
    9264:	48 89 75 90          	mov    %rsi,-0x70(%rbp)
    9268:	88 45 9c             	mov    %al,-0x64(%rbp)
    926b:	64 48 8b 04 25 28 00 	mov    %fs:0x28,%rax
    9272:	00 00 
    9274:	48 89 45 f8          	mov    %rax,-0x8(%rbp)
    9278:	31 c0                	xor    %eax,%eax
    927a:	48 8b 45 90          	mov    -0x70(%rbp),%rax
    927e:	48 89 c7             	mov    %rax,%rdi
    9281:	e8 d8 80 00 00       	call   1135e <file_reader__read_bytes_so_far>
    9286:	8d 50 ff             	lea    -0x1(%rax),%edx
    9289:	48 8d 45 b0          	lea    -0x50(%rbp),%rax
    928d:	89 d6                	mov    %edx,%esi
    928f:	48 89 c7             	mov    %rax,%rdi
    9292:	e8 dc 80 00 00       	call   11373 <instruction__create>
    9297:	48 8d 45 b0          	lea    -0x50(%rbp),%rax
    929b:	48 8d 15 b4 8e 00 00 	lea    0x8eb4(%rip),%rdx        # 12156 <_IO_stdin_used+0x156>
    92a2:	48 89 d6             	mov    %rdx,%rsi
    92a5:	48 89 c7             	mov    %rax,%rdi
    92a8:	b8 00 00 00 00       	mov    $0x0,%eax
    92ad:	e8 08 81 00 00       	call   113ba <instruction__push>
    92b2:	0f b6 45 9c          	movzbl -0x64(%rbp),%eax
    92b6:	c0 e8 03             	shr    $0x3,%al
    92b9:	0f b6 c0             	movzbl %al,%eax
    92bc:	83 e0 03             	and    $0x3,%eax
    92bf:	89 45 ac             	mov    %eax,-0x54(%rbp)
    92c2:	8b 45 ac             	mov    -0x54(%rbp),%eax
    92c5:	89 c7                	mov    %eax,%edi
    92c7:	e8 5a f6 ff ff       	call   8926 <segment_reg_to_word>
    92cc:	48 89 c2             	mov    %rax,%rdx
    92cf:	48 8d 45 b0          	lea    -0x50(%rbp),%rax
    92d3:	48 8d 0d 82 8e 00 00 	lea    0x8e82(%rip),%rcx        # 1215c <_IO_stdin_used+0x15c>
    92da:	48 89 ce             	mov    %rcx,%rsi
    92dd:	48 89 c7             	mov    %rax,%rdi
    92e0:	b8 00 00 00 00       	mov    $0x0,%eax
    92e5:	e8 d0 80 00 00       	call   113ba <instruction__push>
    92ea:	48 8b 45 90          	mov    -0x70(%rbp),%rax
    92ee:	48 83 c0 38          	add    $0x38,%rax
    92f2:	ff 75 e8             	push   -0x18(%rbp)
    92f5:	ff 75 e0             	push   -0x20(%rbp)
    92f8:	ff 75 d8             	push   -0x28(%rbp)
    92fb:	ff 75 d0             	push   -0x30(%rbp)
    92fe:	ff 75 c8             	push   -0x38(%rbp)
    9301:	ff 75 c0             	push   -0x40(%rbp)
    9304:	ff 75 b8             	push   -0x48(%rbp)
    9307:	ff 75 b0             	push   -0x50(%rbp)
    930a:	48 89 c7             	mov    %rax,%rdi
    930d:	e8 86 82 00 00       	call   11598 <instruction_list__push>
    9312:	48 83 c4 40          	add    $0x40,%rsp
    9316:	90                   	nop
    9317:	48 8b 45 f8          	mov    -0x8(%rbp),%rax
    931b:	64 48 2b 04 25 28 00 	sub    %fs:0x28,%rax
    9322:	00 00 
    9324:	74 05                	je     932b <opcode__push_000x_x110+0xd5>
    9326:	e8 45 ee ff ff       	call   8170 <__stack_chk_fail@plt>
    932b:	c9                   	leave  
    932c:	c3                   	ret    

000000000000932d <opcode__pop_1000_1111>:
    932d:	f3 0f 1e fa          	endbr64 
    9331:	55                   	push   %rbp
    9332:	48 89 e5             	mov    %rsp,%rbp
    9335:	48 83 ec 70          	sub    $0x70,%rsp
    9339:	89 f8                	mov    %edi,%eax
    933b:	48 89 75 90          	mov    %rsi,-0x70(%rbp)
    933f:	88 45 9c             	mov    %al,-0x64(%rbp)
    9342:	64 48 8b 04 25 28 00 	mov    %fs:0x28,%rax
    9349:	00 00 
    934b:	48 89 45 f8          	mov    %rax,-0x8(%rbp)
    934f:	31 c0                	xor    %eax,%eax
    9351:	48 8b 45 90          	mov    -0x70(%rbp),%rax
    9355:	48 89 c7             	mov    %rax,%rdi
    9358:	e8 01 80 00 00       	call   1135e <file_reader__read_bytes_so_far>
    935d:	8d 50 ff             	lea    -0x1(%rax),%edx
    9360:	48 8d 45 b0          	lea    -0x50(%rbp),%rax
    9364:	89 d6                	mov    %edx,%esi
    9366:	48 89 c7             	mov    %rax,%rdi
    9369:	e8 05 80 00 00       	call   11373 <instruction__create>
    936e:	48 8d 45 b0          	lea    -0x50(%rbp),%rax
    9372:	48 8d 15 e6 8d 00 00 	lea    0x8de6(%rip),%rdx        # 1215f <_IO_stdin_used+0x15f>
    9379:	48 89 d6             	mov    %rdx,%rsi
    937c:	48 89 c7             	mov    %rax,%rdi
    937f:	b8 00 00 00 00       	mov    $0x0,%eax
    9384:	e8 31 80 00 00       	call   113ba <instruction__push>
    9389:	48 8b 45 90          	mov    -0x70(%rbp),%rax
    938d:	48 8b 50 20          	mov    0x20(%rax),%rdx
    9391:	48 8b 45 90          	mov    -0x70(%rbp),%rax
    9395:	48 8d 4d a7          	lea    -0x59(%rbp),%rcx
    9399:	48 89 ce             	mov    %rcx,%rsi
    939c:	48 89 c7             	mov    %rax,%rdi
    939f:	e8 c9 7e 00 00       	call   1126d <file_reader__read_byte>
    93a4:	0f b6 45 a7          	movzbl -0x59(%rbp),%eax
    93a8:	c0 e8 06             	shr    $0x6,%al
    93ab:	0f b6 c0             	movzbl %al,%eax
    93ae:	83 e0 03             	and    $0x3,%eax
    93b1:	89 45 a8             	mov    %eax,-0x58(%rbp)
    93b4:	0f b6 45 a7          	movzbl -0x59(%rbp),%eax
    93b8:	0f b6 c0             	movzbl %al,%eax
    93bb:	83 e0 07             	and    $0x7,%eax
    93be:	89 45 ac             	mov    %eax,-0x54(%rbp)
    93c1:	8b 45 a8             	mov    -0x58(%rbp),%eax
    93c4:	48 98                	cltq   
    93c6:	48 8d 14 c5 00 00 00 	lea    0x0(,%rax,8),%rdx
    93cd:	00 
    93ce:	48 8d 05 cb e8 00 00 	lea    0xe8cb(%rip),%rax        # 17ca0 <mod_source_only_handlers>
    93d5:	4c 8b 04 02          	mov    (%rdx,%rax,1),%r8
    93d9:	48 8d 4d b0          	lea    -0x50(%rbp),%rcx
    93dd:	48 8b 55 90          	mov    -0x70(%rbp),%rdx
    93e1:	8b 45 ac             	mov    -0x54(%rbp),%eax
    93e4:	89 c6                	mov    %eax,%esi
    93e6:	bf 01 00 00 00       	mov    $0x1,%edi
    93eb:	41 ff d0             	call   *%r8
    93ee:	48 8b 45 90          	mov    -0x70(%rbp),%rax
    93f2:	48 83 c0 38          	add    $0x38,%rax
    93f6:	ff 75 e8             	push   -0x18(%rbp)
    93f9:	ff 75 e0             	push   -0x20(%rbp)
    93fc:	ff 75 d8             	push   -0x28(%rbp)
    93ff:	ff 75 d0             	push   -0x30(%rbp)
    9402:	ff 75 c8             	push   -0x38(%rbp)
    9405:	ff 75 c0             	push   -0x40(%rbp)
    9408:	ff 75 b8             	push   -0x48(%rbp)
    940b:	ff 75 b0             	push   -0x50(%rbp)
    940e:	48 89 c7             	mov    %rax,%rdi
    9411:	e8 82 81 00 00       	call   11598 <instruction_list__push>
    9416:	48 83 c4 40          	add    $0x40,%rsp
    941a:	90                   	nop
    941b:	48 8b 45 f8          	mov    -0x8(%rbp),%rax
    941f:	64 48 2b 04 25 28 00 	sub    %fs:0x28,%rax
    9426:	00 00 
    9428:	74 05                	je     942f <opcode__pop_1000_1111+0x102>
    942a:	e8 41 ed ff ff       	call   8170 <__stack_chk_fail@plt>
    942f:	c9                   	leave  
    9430:	c3                   	ret    

0000000000009431 <opcode__pop_0101_1xxx>:
    9431:	f3 0f 1e fa          	endbr64 
    9435:	55                   	push   %rbp
    9436:	48 89 e5             	mov    %rsp,%rbp
    9439:	48 83 ec 70          	sub    $0x70,%rsp
    943d:	89 f8                	mov    %edi,%eax
    943f:	48 89 75 90          	mov    %rsi,-0x70(%rbp)
    9443:	88 45 9c             	mov    %al,-0x64(%rbp)
    9446:	64 48 8b 04 25 28 00 	mov    %fs:0x28,%rax
    944d:	00 00 
    944f:	48 89 45 f8          	mov    %rax,-0x8(%rbp)
    9453:	31 c0                	xor    %eax,%eax
    9455:	48 8b 45 90          	mov    -0x70(%rbp),%rax
    9459:	48 89 c7             	mov    %rax,%rdi
    945c:	e8 fd 7e 00 00       	call   1135e <file_reader__read_bytes_so_far>
    9461:	8d 50 ff             	lea    -0x1(%rax),%edx
    9464:	48 8d 45 b0          	lea    -0x50(%rbp),%rax
    9468:	89 d6                	mov    %edx,%esi
    946a:	48 89 c7             	mov    %rax,%rdi
    946d:	e8 01 7f 00 00       	call   11373 <instruction__create>
    9472:	48 8d 45 b0          	lea    -0x50(%rbp),%rax
    9476:	48 8d 15 e2 8c 00 00 	lea    0x8ce2(%rip),%rdx        # 1215f <_IO_stdin_used+0x15f>
    947d:	48 89 d6             	mov    %rdx,%rsi
    9480:	48 89 c7             	mov    %rax,%rdi
    9483:	b8 00 00 00 00       	mov    $0x0,%eax
    9488:	e8 2d 7f 00 00       	call   113ba <instruction__push>
    948d:	0f b6 45 9c          	movzbl -0x64(%rbp),%eax
    9491:	83 e0 07             	and    $0x7,%eax
    9494:	89 45 ac             	mov    %eax,-0x54(%rbp)
    9497:	8b 45 ac             	mov    -0x54(%rbp),%eax
    949a:	be 01 00 00 00       	mov    $0x1,%esi
    949f:	89 c7                	mov    %eax,%edi
    94a1:	e8 33 f4 ff ff       	call   88d9 <reg_to_word>
    94a6:	48 89 c2             	mov    %rax,%rdx
    94a9:	48 8d 45 b0          	lea    -0x50(%rbp),%rax
    94ad:	48 8d 0d a8 8c 00 00 	lea    0x8ca8(%rip),%rcx        # 1215c <_IO_stdin_used+0x15c>
    94b4:	48 89 ce             	mov    %rcx,%rsi
    94b7:	48 89 c7             	mov    %rax,%rdi
    94ba:	b8 00 00 00 00       	mov    $0x0,%eax
    94bf:	e8 f6 7e 00 00       	call   113ba <instruction__push>
    94c4:	48 8b 45 90          	mov    -0x70(%rbp),%rax
    94c8:	48 83 c0 38          	add    $0x38,%rax
    94cc:	ff 75 e8             	push   -0x18(%rbp)
    94cf:	ff 75 e0             	push   -0x20(%rbp)
    94d2:	ff 75 d8             	push   -0x28(%rbp)
    94d5:	ff 75 d0             	push   -0x30(%rbp)
    94d8:	ff 75 c8             	push   -0x38(%rbp)
    94db:	ff 75 c0             	push   -0x40(%rbp)
    94de:	ff 75 b8             	push   -0x48(%rbp)
    94e1:	ff 75 b0             	push   -0x50(%rbp)
    94e4:	48 89 c7             	mov    %rax,%rdi
    94e7:	e8 ac 80 00 00       	call   11598 <instruction_list__push>
    94ec:	48 83 c4 40          	add    $0x40,%rsp
    94f0:	90                   	nop
    94f1:	48 8b 45 f8          	mov    -0x8(%rbp),%rax
    94f5:	64 48 2b 04 25 28 00 	sub    %fs:0x28,%rax
    94fc:	00 00 
    94fe:	74 05                	je     9505 <opcode__pop_0101_1xxx+0xd4>
    9500:	e8 6b ec ff ff       	call   8170 <__stack_chk_fail@plt>
    9505:	c9                   	leave  
    9506:	c3                   	ret    

0000000000009507 <opcode__pop_000x_x111>:
    9507:	f3 0f 1e fa          	endbr64 
    950b:	55                   	push   %rbp
    950c:	48 89 e5             	mov    %rsp,%rbp
    950f:	48 83 ec 70          	sub    $0x70,%rsp
    9513:	89 f8                	mov    %edi,%eax
    9515:	48 89 75 90          	mov    %rsi,-0x70(%rbp)
    9519:	88 45 9c             	mov    %al,-0x64(%rbp)
    951c:	64 48 8b 04 25 28 00 	mov    %fs:0x28,%rax
    9523:	00 00 
    9525:	48 89 45 f8          	mov    %rax,-0x8(%rbp)
    9529:	31 c0                	xor    %eax,%eax
    952b:	48 8b 45 90          	mov    -0x70(%rbp),%rax
    952f:	48 89 c7             	mov    %rax,%rdi
    9532:	e8 27 7e 00 00       	call   1135e <file_reader__read_bytes_so_far>
    9537:	8d 50 ff             	lea    -0x1(%rax),%edx
    953a:	48 8d 45 b0          	lea    -0x50(%rbp),%rax
    953e:	89 d6                	mov    %edx,%esi
    9540:	48 89 c7             	mov    %rax,%rdi
    9543:	e8 2b 7e 00 00       	call   11373 <instruction__create>
    9548:	48 8d 45 b0          	lea    -0x50(%rbp),%rax
    954c:	48 8d 15 0c 8c 00 00 	lea    0x8c0c(%rip),%rdx        # 1215f <_IO_stdin_used+0x15f>
    9553:	48 89 d6             	mov    %rdx,%rsi
    9556:	48 89 c7             	mov    %rax,%rdi
    9559:	b8 00 00 00 00       	mov    $0x0,%eax
    955e:	e8 57 7e 00 00       	call   113ba <instruction__push>
    9563:	0f b6 45 9c          	movzbl -0x64(%rbp),%eax
    9567:	c0 e8 03             	shr    $0x3,%al
    956a:	0f b6 c0             	movzbl %al,%eax
    956d:	83 e0 03             	and    $0x3,%eax
    9570:	89 45 ac             	mov    %eax,-0x54(%rbp)
    9573:	8b 45 ac             	mov    -0x54(%rbp),%eax
    9576:	89 c7                	mov    %eax,%edi
    9578:	e8 a9 f3 ff ff       	call   8926 <segment_reg_to_word>
    957d:	48 89 c2             	mov    %rax,%rdx
    9580:	48 8d 45 b0          	lea    -0x50(%rbp),%rax
    9584:	48 8d 0d d1 8b 00 00 	lea    0x8bd1(%rip),%rcx        # 1215c <_IO_stdin_used+0x15c>
    958b:	48 89 ce             	mov    %rcx,%rsi
    958e:	48 89 c7             	mov    %rax,%rdi
    9591:	b8 00 00 00 00       	mov    $0x0,%eax
    9596:	e8 1f 7e 00 00       	call   113ba <instruction__push>
    959b:	48 8b 45 90          	mov    -0x70(%rbp),%rax
    959f:	48 83 c0 38          	add    $0x38,%rax
    95a3:	ff 75 e8             	push   -0x18(%rbp)
    95a6:	ff 75 e0             	push   -0x20(%rbp)
    95a9:	ff 75 d8             	push   -0x28(%rbp)
    95ac:	ff 75 d0             	push   -0x30(%rbp)
    95af:	ff 75 c8             	push   -0x38(%rbp)
    95b2:	ff 75 c0             	push   -0x40(%rbp)
    95b5:	ff 75 b8             	push   -0x48(%rbp)
    95b8:	ff 75 b0             	push   -0x50(%rbp)
    95bb:	48 89 c7             	mov    %rax,%rdi
    95be:	e8 d5 7f 00 00       	call   11598 <instruction_list__push>
    95c3:	48 83 c4 40          	add    $0x40,%rsp
    95c7:	90                   	nop
    95c8:	48 8b 45 f8          	mov    -0x8(%rbp),%rax
    95cc:	64 48 2b 04 25 28 00 	sub    %fs:0x28,%rax
    95d3:	00 00 
    95d5:	74 05                	je     95dc <opcode__pop_000x_x111+0xd5>
    95d7:	e8 94 eb ff ff       	call   8170 <__stack_chk_fail@plt>
    95dc:	c9                   	leave  
    95dd:	c3                   	ret    

00000000000095de <opcode__xchg_1000_011x>:
    95de:	f3 0f 1e fa          	endbr64 
    95e2:	55                   	push   %rbp
    95e3:	48 89 e5             	mov    %rsp,%rbp
    95e6:	48 83 c4 80          	add    $0xffffffffffffff80,%rsp
    95ea:	89 f8                	mov    %edi,%eax
    95ec:	48 89 75 80          	mov    %rsi,-0x80(%rbp)
    95f0:	88 45 8c             	mov    %al,-0x74(%rbp)
    95f3:	64 48 8b 04 25 28 00 	mov    %fs:0x28,%rax
    95fa:	00 00 
    95fc:	48 89 45 f8          	mov    %rax,-0x8(%rbp)
    9600:	31 c0                	xor    %eax,%eax
    9602:	48 8b 45 80          	mov    -0x80(%rbp),%rax
    9606:	48 89 c7             	mov    %rax,%rdi
    9609:	e8 50 7d 00 00       	call   1135e <file_reader__read_bytes_so_far>
    960e:	8d 50 ff             	lea    -0x1(%rax),%edx
    9611:	48 8d 45 b0          	lea    -0x50(%rbp),%rax
    9615:	89 d6                	mov    %edx,%esi
    9617:	48 89 c7             	mov    %rax,%rdi
    961a:	e8 54 7d 00 00       	call   11373 <instruction__create>
    961f:	48 8d 45 b0          	lea    -0x50(%rbp),%rax
    9623:	48 8d 15 3a 8b 00 00 	lea    0x8b3a(%rip),%rdx        # 12164 <_IO_stdin_used+0x164>
    962a:	48 89 d6             	mov    %rdx,%rsi
    962d:	48 89 c7             	mov    %rax,%rdi
    9630:	b8 00 00 00 00       	mov    $0x0,%eax
    9635:	e8 80 7d 00 00       	call   113ba <instruction__push>
    963a:	0f b6 45 8c          	movzbl -0x74(%rbp),%eax
    963e:	83 e0 01             	and    $0x1,%eax
    9641:	89 45 a0             	mov    %eax,-0x60(%rbp)
    9644:	48 8b 45 80          	mov    -0x80(%rbp),%rax
    9648:	48 8b 50 20          	mov    0x20(%rax),%rdx
    964c:	48 8b 45 80          	mov    -0x80(%rbp),%rax
    9650:	48 8d 4d 9f          	lea    -0x61(%rbp),%rcx
    9654:	48 89 ce             	mov    %rcx,%rsi
    9657:	48 89 c7             	mov    %rax,%rdi
    965a:	e8 0e 7c 00 00       	call   1126d <file_reader__read_byte>
    965f:	0f b6 45 9f          	movzbl -0x61(%rbp),%eax
    9663:	c0 e8 06             	shr    $0x6,%al
    9666:	0f b6 c0             	movzbl %al,%eax
    9669:	83 e0 03             	and    $0x3,%eax
    966c:	89 45 a4             	mov    %eax,-0x5c(%rbp)
    966f:	0f b6 45 9f          	movzbl -0x61(%rbp),%eax
    9673:	c0 e8 03             	shr    $0x3,%al
    9676:	0f b6 c0             	movzbl %al,%eax
    9679:	83 e0 07             	and    $0x7,%eax
    967c:	89 45 a8             	mov    %eax,-0x58(%rbp)
    967f:	0f b6 45 9f          	movzbl -0x61(%rbp),%eax
    9683:	0f b6 c0             	movzbl %al,%eax
    9686:	83 e0 07             	and    $0x7,%eax
    9689:	89 45 ac             	mov    %eax,-0x54(%rbp)
    968c:	8b 45 a4             	mov    -0x5c(%rbp),%eax
    968f:	48 98                	cltq   
    9691:	48 8d 14 c5 00 00 00 	lea    0x0(,%rax,8),%rdx
    9698:	00 
    9699:	48 8d 05 a0 e5 00 00 	lea    0xe5a0(%rip),%rax        # 17c40 <mod_handlers>
    96a0:	4c 8b 14 02          	mov    (%rdx,%rax,1),%r10
    96a4:	48 8d 7d b0          	lea    -0x50(%rbp),%rdi
    96a8:	48 8b 75 80          	mov    -0x80(%rbp),%rsi
    96ac:	8b 4d ac             	mov    -0x54(%rbp),%ecx
    96af:	8b 55 a8             	mov    -0x58(%rbp),%edx
    96b2:	8b 45 a0             	mov    -0x60(%rbp),%eax
    96b5:	49 89 f9             	mov    %rdi,%r9
    96b8:	49 89 f0             	mov    %rsi,%r8
    96bb:	be 01 00 00 00       	mov    $0x1,%esi
    96c0:	89 c7                	mov    %eax,%edi
    96c2:	41 ff d2             	call   *%r10
    96c5:	48 8b 45 80          	mov    -0x80(%rbp),%rax
    96c9:	48 83 c0 38          	add    $0x38,%rax
    96cd:	ff 75 e8             	push   -0x18(%rbp)
    96d0:	ff 75 e0             	push   -0x20(%rbp)
    96d3:	ff 75 d8             	push   -0x28(%rbp)
    96d6:	ff 75 d0             	push   -0x30(%rbp)
    96d9:	ff 75 c8             	push   -0x38(%rbp)
    96dc:	ff 75 c0             	push   -0x40(%rbp)
    96df:	ff 75 b8             	push   -0x48(%rbp)
    96e2:	ff 75 b0             	push   -0x50(%rbp)
    96e5:	48 89 c7             	mov    %rax,%rdi
    96e8:	e8 ab 7e 00 00       	call   11598 <instruction_list__push>
    96ed:	48 83 c4 40          	add    $0x40,%rsp
    96f1:	90                   	nop
    96f2:	48 8b 45 f8          	mov    -0x8(%rbp),%rax
    96f6:	64 48 2b 04 25 28 00 	sub    %fs:0x28,%rax
    96fd:	00 00 
    96ff:	74 05                	je     9706 <opcode__xchg_1000_011x+0x128>
    9701:	e8 6a ea ff ff       	call   8170 <__stack_chk_fail@plt>
    9706:	c9                   	leave  
    9707:	c3                   	ret    

0000000000009708 <opcode__xchg_1001_0xxx>:
    9708:	f3 0f 1e fa          	endbr64 
    970c:	55                   	push   %rbp
    970d:	48 89 e5             	mov    %rsp,%rbp
    9710:	48 83 ec 70          	sub    $0x70,%rsp
    9714:	89 f8                	mov    %edi,%eax
    9716:	48 89 75 90          	mov    %rsi,-0x70(%rbp)
    971a:	88 45 9c             	mov    %al,-0x64(%rbp)
    971d:	64 48 8b 04 25 28 00 	mov    %fs:0x28,%rax
    9724:	00 00 
    9726:	48 89 45 f8          	mov    %rax,-0x8(%rbp)
    972a:	31 c0                	xor    %eax,%eax
    972c:	48 8b 45 90          	mov    -0x70(%rbp),%rax
    9730:	48 89 c7             	mov    %rax,%rdi
    9733:	e8 26 7c 00 00       	call   1135e <file_reader__read_bytes_so_far>
    9738:	8d 50 ff             	lea    -0x1(%rax),%edx
    973b:	48 8d 45 b0          	lea    -0x50(%rbp),%rax
    973f:	89 d6                	mov    %edx,%esi
    9741:	48 89 c7             	mov    %rax,%rdi
    9744:	e8 2a 7c 00 00       	call   11373 <instruction__create>
    9749:	48 8d 45 b0          	lea    -0x50(%rbp),%rax
    974d:	48 8d 15 10 8a 00 00 	lea    0x8a10(%rip),%rdx        # 12164 <_IO_stdin_used+0x164>
    9754:	48 89 d6             	mov    %rdx,%rsi
    9757:	48 89 c7             	mov    %rax,%rdi
    975a:	b8 00 00 00 00       	mov    $0x0,%eax
    975f:	e8 56 7c 00 00       	call   113ba <instruction__push>
    9764:	0f b6 45 9c          	movzbl -0x64(%rbp),%eax
    9768:	83 e0 07             	and    $0x7,%eax
    976b:	89 45 ac             	mov    %eax,-0x54(%rbp)
    976e:	48 8d 4d b0          	lea    -0x50(%rbp),%rcx
    9772:	48 8b 55 90          	mov    -0x70(%rbp),%rdx
    9776:	8b 45 ac             	mov    -0x54(%rbp),%eax
    9779:	49 89 c9             	mov    %rcx,%r9
    977c:	49 89 d0             	mov    %rdx,%r8
    977f:	b9 00 00 00 00       	mov    $0x0,%ecx
    9784:	89 c2                	mov    %eax,%edx
    9786:	be 00 00 00 00       	mov    $0x0,%esi
    978b:	bf 01 00 00 00       	mov    $0x1,%edi
    9790:	e8 a8 6e 00 00       	call   1063d <mod__register_mode_no_ea>
    9795:	48 8b 45 90          	mov    -0x70(%rbp),%rax
    9799:	48 83 c0 38          	add    $0x38,%rax
    979d:	ff 75 e8             	push   -0x18(%rbp)
    97a0:	ff 75 e0             	push   -0x20(%rbp)
    97a3:	ff 75 d8             	push   -0x28(%rbp)
    97a6:	ff 75 d0             	push   -0x30(%rbp)
    97a9:	ff 75 c8             	push   -0x38(%rbp)
    97ac:	ff 75 c0             	push   -0x40(%rbp)
    97af:	ff 75 b8             	push   -0x48(%rbp)
    97b2:	ff 75 b0             	push   -0x50(%rbp)
    97b5:	48 89 c7             	mov    %rax,%rdi
    97b8:	e8 db 7d 00 00       	call   11598 <instruction_list__push>
    97bd:	48 83 c4 40          	add    $0x40,%rsp
    97c1:	90                   	nop
    97c2:	48 8b 45 f8          	mov    -0x8(%rbp),%rax
    97c6:	64 48 2b 04 25 28 00 	sub    %fs:0x28,%rax
    97cd:	00 00 
    97cf:	74 05                	je     97d6 <opcode__xchg_1001_0xxx+0xce>
    97d1:	e8 9a e9 ff ff       	call   8170 <__stack_chk_fail@plt>
    97d6:	c9                   	leave  
    97d7:	c3                   	ret    

00000000000097d8 <opcode__in_1110_010x>:
    97d8:	f3 0f 1e fa          	endbr64 
    97dc:	55                   	push   %rbp
    97dd:	48 89 e5             	mov    %rsp,%rbp
    97e0:	53                   	push   %rbx
    97e1:	48 83 ec 78          	sub    $0x78,%rsp
    97e5:	89 f8                	mov    %edi,%eax
    97e7:	48 89 75 80          	mov    %rsi,-0x80(%rbp)
    97eb:	88 45 8c             	mov    %al,-0x74(%rbp)
    97ee:	64 48 8b 04 25 28 00 	mov    %fs:0x28,%rax
    97f5:	00 00 
    97f7:	48 89 45 e8          	mov    %rax,-0x18(%rbp)
    97fb:	31 c0                	xor    %eax,%eax
    97fd:	48 8b 45 80          	mov    -0x80(%rbp),%rax
    9801:	48 89 c7             	mov    %rax,%rdi
    9804:	e8 55 7b 00 00       	call   1135e <file_reader__read_bytes_so_far>
    9809:	8d 50 ff             	lea    -0x1(%rax),%edx
    980c:	48 8d 45 a0          	lea    -0x60(%rbp),%rax
    9810:	89 d6                	mov    %edx,%esi
    9812:	48 89 c7             	mov    %rax,%rdi
    9815:	e8 59 7b 00 00       	call   11373 <instruction__create>
    981a:	48 8d 45 a0          	lea    -0x60(%rbp),%rax
    981e:	48 8d 15 45 89 00 00 	lea    0x8945(%rip),%rdx        # 1216a <_IO_stdin_used+0x16a>
    9825:	48 89 d6             	mov    %rdx,%rsi
    9828:	48 89 c7             	mov    %rax,%rdi
    982b:	b8 00 00 00 00       	mov    $0x0,%eax
    9830:	e8 85 7b 00 00       	call   113ba <instruction__push>
    9835:	0f b6 45 8c          	movzbl -0x74(%rbp),%eax
    9839:	83 e0 01             	and    $0x1,%eax
    983c:	89 45 9c             	mov    %eax,-0x64(%rbp)
    983f:	48 8b 45 80          	mov    -0x80(%rbp),%rax
    9843:	48 8b 50 20          	mov    0x20(%rax),%rdx
    9847:	48 8b 45 80          	mov    -0x80(%rbp),%rax
    984b:	48 8d 4d 9b          	lea    -0x65(%rbp),%rcx
    984f:	48 89 ce             	mov    %rcx,%rsi
    9852:	48 89 c7             	mov    %rax,%rdi
    9855:	e8 13 7a 00 00       	call   1126d <file_reader__read_byte>
    985a:	0f b6 45 9b          	movzbl -0x65(%rbp),%eax
    985e:	0f b6 d8             	movzbl %al,%ebx
    9861:	83 7d 9c 00          	cmpl   $0x0,-0x64(%rbp)
    9865:	74 11                	je     9878 <opcode__in_1110_010x+0xa0>
    9867:	be 01 00 00 00       	mov    $0x1,%esi
    986c:	bf 00 00 00 00       	mov    $0x0,%edi
    9871:	e8 63 f0 ff ff       	call   88d9 <reg_to_word>
    9876:	eb 0f                	jmp    9887 <opcode__in_1110_010x+0xaf>
    9878:	be 00 00 00 00       	mov    $0x0,%esi
    987d:	bf 00 00 00 00       	mov    $0x0,%edi
    9882:	e8 52 f0 ff ff       	call   88d9 <reg_to_word>
    9887:	48 8d 7d a0          	lea    -0x60(%rbp),%rdi
    988b:	89 d9                	mov    %ebx,%ecx
    988d:	48 89 c2             	mov    %rax,%rdx
    9890:	48 8d 05 5c 88 00 00 	lea    0x885c(%rip),%rax        # 120f3 <_IO_stdin_used+0xf3>
    9897:	48 89 c6             	mov    %rax,%rsi
    989a:	b8 00 00 00 00       	mov    $0x0,%eax
    989f:	e8 16 7b 00 00       	call   113ba <instruction__push>
    98a4:	48 8b 45 80          	mov    -0x80(%rbp),%rax
    98a8:	48 83 c0 38          	add    $0x38,%rax
    98ac:	ff 75 d8             	push   -0x28(%rbp)
    98af:	ff 75 d0             	push   -0x30(%rbp)
    98b2:	ff 75 c8             	push   -0x38(%rbp)
    98b5:	ff 75 c0             	push   -0x40(%rbp)
    98b8:	ff 75 b8             	push   -0x48(%rbp)
    98bb:	ff 75 b0             	push   -0x50(%rbp)
    98be:	ff 75 a8             	push   -0x58(%rbp)
    98c1:	ff 75 a0             	push   -0x60(%rbp)
    98c4:	48 89 c7             	mov    %rax,%rdi
    98c7:	e8 cc 7c 00 00       	call   11598 <instruction_list__push>
    98cc:	48 83 c4 40          	add    $0x40,%rsp
    98d0:	90                   	nop
    98d1:	48 8b 45 e8          	mov    -0x18(%rbp),%rax
    98d5:	64 48 2b 04 25 28 00 	sub    %fs:0x28,%rax
    98dc:	00 00 
    98de:	74 05                	je     98e5 <opcode__in_1110_010x+0x10d>
    98e0:	e8 8b e8 ff ff       	call   8170 <__stack_chk_fail@plt>
    98e5:	48 8b 5d f8          	mov    -0x8(%rbp),%rbx
    98e9:	c9                   	leave  
    98ea:	c3                   	ret    

00000000000098eb <opcode__in_1110_110x>:
    98eb:	f3 0f 1e fa          	endbr64 
    98ef:	55                   	push   %rbp
    98f0:	48 89 e5             	mov    %rsp,%rbp
    98f3:	48 83 ec 70          	sub    $0x70,%rsp
    98f7:	89 f8                	mov    %edi,%eax
    98f9:	48 89 75 90          	mov    %rsi,-0x70(%rbp)
    98fd:	88 45 9c             	mov    %al,-0x64(%rbp)
    9900:	64 48 8b 04 25 28 00 	mov    %fs:0x28,%rax
    9907:	00 00 
    9909:	48 89 45 f8          	mov    %rax,-0x8(%rbp)
    990d:	31 c0                	xor    %eax,%eax
    990f:	48 8b 45 90          	mov    -0x70(%rbp),%rax
    9913:	48 89 c7             	mov    %rax,%rdi
    9916:	e8 43 7a 00 00       	call   1135e <file_reader__read_bytes_so_far>
    991b:	8d 50 ff             	lea    -0x1(%rax),%edx
    991e:	48 8d 45 b0          	lea    -0x50(%rbp),%rax
    9922:	89 d6                	mov    %edx,%esi
    9924:	48 89 c7             	mov    %rax,%rdi
    9927:	e8 47 7a 00 00       	call   11373 <instruction__create>
    992c:	48 8d 45 b0          	lea    -0x50(%rbp),%rax
    9930:	48 8d 15 33 88 00 00 	lea    0x8833(%rip),%rdx        # 1216a <_IO_stdin_used+0x16a>
    9937:	48 89 d6             	mov    %rdx,%rsi
    993a:	48 89 c7             	mov    %rax,%rdi
    993d:	b8 00 00 00 00       	mov    $0x0,%eax
    9942:	e8 73 7a 00 00       	call   113ba <instruction__push>
    9947:	0f b6 45 9c          	movzbl -0x64(%rbp),%eax
    994b:	83 e0 01             	and    $0x1,%eax
    994e:	89 45 ac             	mov    %eax,-0x54(%rbp)
    9951:	83 7d ac 00          	cmpl   $0x0,-0x54(%rbp)
    9955:	74 11                	je     9968 <opcode__in_1110_110x+0x7d>
    9957:	be 01 00 00 00       	mov    $0x1,%esi
    995c:	bf 00 00 00 00       	mov    $0x0,%edi
    9961:	e8 73 ef ff ff       	call   88d9 <reg_to_word>
    9966:	eb 0f                	jmp    9977 <opcode__in_1110_110x+0x8c>
    9968:	be 00 00 00 00       	mov    $0x0,%esi
    996d:	bf 00 00 00 00       	mov    $0x0,%edi
    9972:	e8 62 ef ff ff       	call   88d9 <reg_to_word>
    9977:	48 8d 7d b0          	lea    -0x50(%rbp),%rdi
    997b:	48 8d 15 ec 87 00 00 	lea    0x87ec(%rip),%rdx        # 1216e <_IO_stdin_used+0x16e>
    9982:	48 89 d1             	mov    %rdx,%rcx
    9985:	48 89 c2             	mov    %rax,%rdx
    9988:	48 8d 05 e2 87 00 00 	lea    0x87e2(%rip),%rax        # 12171 <_IO_stdin_used+0x171>
    998f:	48 89 c6             	mov    %rax,%rsi
    9992:	b8 00 00 00 00       	mov    $0x0,%eax
    9997:	e8 1e 7a 00 00       	call   113ba <instruction__push>
    999c:	48 8b 45 90          	mov    -0x70(%rbp),%rax
    99a0:	48 83 c0 38          	add    $0x38,%rax
    99a4:	ff 75 e8             	push   -0x18(%rbp)
    99a7:	ff 75 e0             	push   -0x20(%rbp)
    99aa:	ff 75 d8             	push   -0x28(%rbp)
    99ad:	ff 75 d0             	push   -0x30(%rbp)
    99b0:	ff 75 c8             	push   -0x38(%rbp)
    99b3:	ff 75 c0             	push   -0x40(%rbp)
    99b6:	ff 75 b8             	push   -0x48(%rbp)
    99b9:	ff 75 b0             	push   -0x50(%rbp)
    99bc:	48 89 c7             	mov    %rax,%rdi
    99bf:	e8 d4 7b 00 00       	call   11598 <instruction_list__push>
    99c4:	48 83 c4 40          	add    $0x40,%rsp
    99c8:	90                   	nop
    99c9:	48 8b 45 f8          	mov    -0x8(%rbp),%rax
    99cd:	64 48 2b 04 25 28 00 	sub    %fs:0x28,%rax
    99d4:	00 00 
    99d6:	74 05                	je     99dd <opcode__in_1110_110x+0xf2>
    99d8:	e8 93 e7 ff ff       	call   8170 <__stack_chk_fail@plt>
    99dd:	c9                   	leave  
    99de:	c3                   	ret    

00000000000099df <opcode__out_1110_011x>:
    99df:	f3 0f 1e fa          	endbr64 
    99e3:	55                   	push   %rbp
    99e4:	48 89 e5             	mov    %rsp,%rbp
    99e7:	48 83 ec 70          	sub    $0x70,%rsp
    99eb:	89 f8                	mov    %edi,%eax
    99ed:	48 89 75 90          	mov    %rsi,-0x70(%rbp)
    99f1:	88 45 9c             	mov    %al,-0x64(%rbp)
    99f4:	64 48 8b 04 25 28 00 	mov    %fs:0x28,%rax
    99fb:	00 00 
    99fd:	48 89 45 f8          	mov    %rax,-0x8(%rbp)
    9a01:	31 c0                	xor    %eax,%eax
    9a03:	48 8b 45 90          	mov    -0x70(%rbp),%rax
    9a07:	48 89 c7             	mov    %rax,%rdi
    9a0a:	e8 4f 79 00 00       	call   1135e <file_reader__read_bytes_so_far>
    9a0f:	8d 50 ff             	lea    -0x1(%rax),%edx
    9a12:	48 8d 45 b0          	lea    -0x50(%rbp),%rax
    9a16:	89 d6                	mov    %edx,%esi
    9a18:	48 89 c7             	mov    %rax,%rdi
    9a1b:	e8 53 79 00 00       	call   11373 <instruction__create>
    9a20:	48 8d 45 b0          	lea    -0x50(%rbp),%rax
    9a24:	48 8d 15 4d 87 00 00 	lea    0x874d(%rip),%rdx        # 12178 <_IO_stdin_used+0x178>
    9a2b:	48 89 d6             	mov    %rdx,%rsi
    9a2e:	48 89 c7             	mov    %rax,%rdi
    9a31:	b8 00 00 00 00       	mov    $0x0,%eax
    9a36:	e8 7f 79 00 00       	call   113ba <instruction__push>
    9a3b:	0f b6 45 9c          	movzbl -0x64(%rbp),%eax
    9a3f:	83 e0 01             	and    $0x1,%eax
    9a42:	89 45 ac             	mov    %eax,-0x54(%rbp)
    9a45:	48 8b 45 90          	mov    -0x70(%rbp),%rax
    9a49:	48 8b 50 20          	mov    0x20(%rax),%rdx
    9a4d:	48 8b 45 90          	mov    -0x70(%rbp),%rax
    9a51:	48 8d 4d ab          	lea    -0x55(%rbp),%rcx
    9a55:	48 89 ce             	mov    %rcx,%rsi
    9a58:	48 89 c7             	mov    %rax,%rdi
    9a5b:	e8 0d 78 00 00       	call   1126d <file_reader__read_byte>
    9a60:	83 7d ac 00          	cmpl   $0x0,-0x54(%rbp)
    9a64:	74 11                	je     9a77 <opcode__out_1110_011x+0x98>
    9a66:	be 01 00 00 00       	mov    $0x1,%esi
    9a6b:	bf 00 00 00 00       	mov    $0x0,%edi
    9a70:	e8 64 ee ff ff       	call   88d9 <reg_to_word>
    9a75:	eb 0f                	jmp    9a86 <opcode__out_1110_011x+0xa7>
    9a77:	be 00 00 00 00       	mov    $0x0,%esi
    9a7c:	bf 00 00 00 00       	mov    $0x0,%edi
    9a81:	e8 53 ee ff ff       	call   88d9 <reg_to_word>
    9a86:	0f b6 55 ab          	movzbl -0x55(%rbp),%edx
    9a8a:	0f b6 d2             	movzbl %dl,%edx
    9a8d:	48 8d 7d b0          	lea    -0x50(%rbp),%rdi
    9a91:	48 89 c1             	mov    %rax,%rcx
    9a94:	48 8d 05 e2 86 00 00 	lea    0x86e2(%rip),%rax        # 1217d <_IO_stdin_used+0x17d>
    9a9b:	48 89 c6             	mov    %rax,%rsi
    9a9e:	b8 00 00 00 00       	mov    $0x0,%eax
    9aa3:	e8 12 79 00 00       	call   113ba <instruction__push>
    9aa8:	48 8b 45 90          	mov    -0x70(%rbp),%rax
    9aac:	48 83 c0 38          	add    $0x38,%rax
    9ab0:	ff 75 e8             	push   -0x18(%rbp)
    9ab3:	ff 75 e0             	push   -0x20(%rbp)
    9ab6:	ff 75 d8             	push   -0x28(%rbp)
    9ab9:	ff 75 d0             	push   -0x30(%rbp)
    9abc:	ff 75 c8             	push   -0x38(%rbp)
    9abf:	ff 75 c0             	push   -0x40(%rbp)
    9ac2:	ff 75 b8             	push   -0x48(%rbp)
    9ac5:	ff 75 b0             	push   -0x50(%rbp)
    9ac8:	48 89 c7             	mov    %rax,%rdi
    9acb:	e8 c8 7a 00 00       	call   11598 <instruction_list__push>
    9ad0:	48 83 c4 40          	add    $0x40,%rsp
    9ad4:	90                   	nop
    9ad5:	48 8b 45 f8          	mov    -0x8(%rbp),%rax
    9ad9:	64 48 2b 04 25 28 00 	sub    %fs:0x28,%rax
    9ae0:	00 00 
    9ae2:	74 05                	je     9ae9 <opcode__out_1110_011x+0x10a>
    9ae4:	e8 87 e6 ff ff       	call   8170 <__stack_chk_fail@plt>
    9ae9:	c9                   	leave  
    9aea:	c3                   	ret    

0000000000009aeb <opcode__out_1110_111x>:
    9aeb:	f3 0f 1e fa          	endbr64 
    9aef:	55                   	push   %rbp
    9af0:	48 89 e5             	mov    %rsp,%rbp
    9af3:	48 83 ec 70          	sub    $0x70,%rsp
    9af7:	89 f8                	mov    %edi,%eax
    9af9:	48 89 75 90          	mov    %rsi,-0x70(%rbp)
    9afd:	88 45 9c             	mov    %al,-0x64(%rbp)
    9b00:	64 48 8b 04 25 28 00 	mov    %fs:0x28,%rax
    9b07:	00 00 
    9b09:	48 89 45 f8          	mov    %rax,-0x8(%rbp)
    9b0d:	31 c0                	xor    %eax,%eax
    9b0f:	48 8b 45 90          	mov    -0x70(%rbp),%rax
    9b13:	48 89 c7             	mov    %rax,%rdi
    9b16:	e8 43 78 00 00       	call   1135e <file_reader__read_bytes_so_far>
    9b1b:	8d 50 ff             	lea    -0x1(%rax),%edx
    9b1e:	48 8d 45 b0          	lea    -0x50(%rbp),%rax
    9b22:	89 d6                	mov    %edx,%esi
    9b24:	48 89 c7             	mov    %rax,%rdi
    9b27:	e8 47 78 00 00       	call   11373 <instruction__create>
    9b2c:	48 8d 45 b0          	lea    -0x50(%rbp),%rax
    9b30:	48 8d 15 41 86 00 00 	lea    0x8641(%rip),%rdx        # 12178 <_IO_stdin_used+0x178>
    9b37:	48 89 d6             	mov    %rdx,%rsi
    9b3a:	48 89 c7             	mov    %rax,%rdi
    9b3d:	b8 00 00 00 00       	mov    $0x0,%eax
    9b42:	e8 73 78 00 00       	call   113ba <instruction__push>
    9b47:	0f b6 45 9c          	movzbl -0x64(%rbp),%eax
    9b4b:	83 e0 01             	and    $0x1,%eax
    9b4e:	89 45 ac             	mov    %eax,-0x54(%rbp)
    9b51:	83 7d ac 00          	cmpl   $0x0,-0x54(%rbp)
    9b55:	74 11                	je     9b68 <opcode__out_1110_111x+0x7d>
    9b57:	be 01 00 00 00       	mov    $0x1,%esi
    9b5c:	bf 00 00 00 00       	mov    $0x0,%edi
    9b61:	e8 73 ed ff ff       	call   88d9 <reg_to_word>
    9b66:	eb 0f                	jmp    9b77 <opcode__out_1110_111x+0x8c>
    9b68:	be 00 00 00 00       	mov    $0x0,%esi
    9b6d:	bf 00 00 00 00       	mov    $0x0,%edi
    9b72:	e8 62 ed ff ff       	call   88d9 <reg_to_word>
    9b77:	48 8d 7d b0          	lea    -0x50(%rbp),%rdi
    9b7b:	48 89 c1             	mov    %rax,%rcx
    9b7e:	48 8d 05 e9 85 00 00 	lea    0x85e9(%rip),%rax        # 1216e <_IO_stdin_used+0x16e>
    9b85:	48 89 c2             	mov    %rax,%rdx
    9b88:	48 8d 05 e2 85 00 00 	lea    0x85e2(%rip),%rax        # 12171 <_IO_stdin_used+0x171>
    9b8f:	48 89 c6             	mov    %rax,%rsi
    9b92:	b8 00 00 00 00       	mov    $0x0,%eax
    9b97:	e8 1e 78 00 00       	call   113ba <instruction__push>
    9b9c:	48 8b 45 90          	mov    -0x70(%rbp),%rax
    9ba0:	48 83 c0 38          	add    $0x38,%rax
    9ba4:	ff 75 e8             	push   -0x18(%rbp)
    9ba7:	ff 75 e0             	push   -0x20(%rbp)
    9baa:	ff 75 d8             	push   -0x28(%rbp)
    9bad:	ff 75 d0             	push   -0x30(%rbp)
    9bb0:	ff 75 c8             	push   -0x38(%rbp)
    9bb3:	ff 75 c0             	push   -0x40(%rbp)
    9bb6:	ff 75 b8             	push   -0x48(%rbp)
    9bb9:	ff 75 b0             	push   -0x50(%rbp)
    9bbc:	48 89 c7             	mov    %rax,%rdi
    9bbf:	e8 d4 79 00 00       	call   11598 <instruction_list__push>
    9bc4:	48 83 c4 40          	add    $0x40,%rsp
    9bc8:	90                   	nop
    9bc9:	48 8b 45 f8          	mov    -0x8(%rbp),%rax
    9bcd:	64 48 2b 04 25 28 00 	sub    %fs:0x28,%rax
    9bd4:	00 00 
    9bd6:	74 05                	je     9bdd <opcode__out_1110_111x+0xf2>
    9bd8:	e8 93 e5 ff ff       	call   8170 <__stack_chk_fail@plt>
    9bdd:	c9                   	leave  
    9bde:	c3                   	ret    

0000000000009bdf <opcode__xlat>:
    9bdf:	f3 0f 1e fa          	endbr64 
    9be3:	55                   	push   %rbp
    9be4:	48 89 e5             	mov    %rsp,%rbp
    9be7:	48 83 ec 60          	sub    $0x60,%rsp
    9beb:	89 f8                	mov    %edi,%eax
    9bed:	48 89 75 a0          	mov    %rsi,-0x60(%rbp)
    9bf1:	88 45 ac             	mov    %al,-0x54(%rbp)
    9bf4:	64 48 8b 04 25 28 00 	mov    %fs:0x28,%rax
    9bfb:	00 00 
    9bfd:	48 89 45 f8          	mov    %rax,-0x8(%rbp)
    9c01:	31 c0                	xor    %eax,%eax
    9c03:	48 8b 45 a0          	mov    -0x60(%rbp),%rax
    9c07:	48 89 c7             	mov    %rax,%rdi
    9c0a:	e8 4f 77 00 00       	call   1135e <file_reader__read_bytes_so_far>
    9c0f:	8d 50 ff             	lea    -0x1(%rax),%edx
    9c12:	48 8d 45 b0          	lea    -0x50(%rbp),%rax
    9c16:	89 d6                	mov    %edx,%esi
    9c18:	48 89 c7             	mov    %rax,%rdi
    9c1b:	e8 53 77 00 00       	call   11373 <instruction__create>
    9c20:	48 8d 45 b0          	lea    -0x50(%rbp),%rax
    9c24:	48 8d 15 59 85 00 00 	lea    0x8559(%rip),%rdx        # 12184 <_IO_stdin_used+0x184>
    9c2b:	48 89 d6             	mov    %rdx,%rsi
    9c2e:	48 89 c7             	mov    %rax,%rdi
    9c31:	b8 00 00 00 00       	mov    $0x0,%eax
    9c36:	e8 7f 77 00 00       	call   113ba <instruction__push>
    9c3b:	48 8b 45 a0          	mov    -0x60(%rbp),%rax
    9c3f:	48 83 c0 38          	add    $0x38,%rax
    9c43:	ff 75 e8             	push   -0x18(%rbp)
    9c46:	ff 75 e0             	push   -0x20(%rbp)
    9c49:	ff 75 d8             	push   -0x28(%rbp)
    9c4c:	ff 75 d0             	push   -0x30(%rbp)
    9c4f:	ff 75 c8             	push   -0x38(%rbp)
    9c52:	ff 75 c0             	push   -0x40(%rbp)
    9c55:	ff 75 b8             	push   -0x48(%rbp)
    9c58:	ff 75 b0             	push   -0x50(%rbp)
    9c5b:	48 89 c7             	mov    %rax,%rdi
    9c5e:	e8 35 79 00 00       	call   11598 <instruction_list__push>
    9c63:	48 83 c4 40          	add    $0x40,%rsp
    9c67:	90                   	nop
    9c68:	48 8b 45 f8          	mov    -0x8(%rbp),%rax
    9c6c:	64 48 2b 04 25 28 00 	sub    %fs:0x28,%rax
    9c73:	00 00 
    9c75:	74 05                	je     9c7c <opcode__xlat+0x9d>
    9c77:	e8 f4 e4 ff ff       	call   8170 <__stack_chk_fail@plt>
    9c7c:	c9                   	leave  
    9c7d:	c3                   	ret    

0000000000009c7e <opcode__lea>:
    9c7e:	f3 0f 1e fa          	endbr64 
    9c82:	55                   	push   %rbp
    9c83:	48 89 e5             	mov    %rsp,%rbp
    9c86:	48 83 ec 70          	sub    $0x70,%rsp
    9c8a:	89 f8                	mov    %edi,%eax
    9c8c:	48 89 75 90          	mov    %rsi,-0x70(%rbp)
    9c90:	88 45 9c             	mov    %al,-0x64(%rbp)
    9c93:	64 48 8b 04 25 28 00 	mov    %fs:0x28,%rax
    9c9a:	00 00 
    9c9c:	48 89 45 f8          	mov    %rax,-0x8(%rbp)
    9ca0:	31 c0                	xor    %eax,%eax
    9ca2:	48 8b 45 90          	mov    -0x70(%rbp),%rax
    9ca6:	48 89 c7             	mov    %rax,%rdi
    9ca9:	e8 b0 76 00 00       	call   1135e <file_reader__read_bytes_so_far>
    9cae:	8d 50 ff             	lea    -0x1(%rax),%edx
    9cb1:	48 8d 45 b0          	lea    -0x50(%rbp),%rax
    9cb5:	89 d6                	mov    %edx,%esi
    9cb7:	48 89 c7             	mov    %rax,%rdi
    9cba:	e8 b4 76 00 00       	call   11373 <instruction__create>
    9cbf:	48 8d 45 b0          	lea    -0x50(%rbp),%rax
    9cc3:	48 8d 15 bf 84 00 00 	lea    0x84bf(%rip),%rdx        # 12189 <_IO_stdin_used+0x189>
    9cca:	48 89 d6             	mov    %rdx,%rsi
    9ccd:	48 89 c7             	mov    %rax,%rdi
    9cd0:	b8 00 00 00 00       	mov    $0x0,%eax
    9cd5:	e8 e0 76 00 00       	call   113ba <instruction__push>
    9cda:	48 8b 45 90          	mov    -0x70(%rbp),%rax
    9cde:	48 8b 50 20          	mov    0x20(%rax),%rdx
    9ce2:	48 8b 45 90          	mov    -0x70(%rbp),%rax
    9ce6:	48 8d 4d a3          	lea    -0x5d(%rbp),%rcx
    9cea:	48 89 ce             	mov    %rcx,%rsi
    9ced:	48 89 c7             	mov    %rax,%rdi
    9cf0:	e8 78 75 00 00       	call   1126d <file_reader__read_byte>
    9cf5:	0f b6 45 a3          	movzbl -0x5d(%rbp),%eax
    9cf9:	c0 e8 06             	shr    $0x6,%al
    9cfc:	0f b6 c0             	movzbl %al,%eax
    9cff:	83 e0 03             	and    $0x3,%eax
    9d02:	89 45 a4             	mov    %eax,-0x5c(%rbp)
    9d05:	0f b6 45 a3          	movzbl -0x5d(%rbp),%eax
    9d09:	c0 e8 03             	shr    $0x3,%al
    9d0c:	0f b6 c0             	movzbl %al,%eax
    9d0f:	83 e0 07             	and    $0x7,%eax
    9d12:	89 45 a8             	mov    %eax,-0x58(%rbp)
    9d15:	0f b6 45 a3          	movzbl -0x5d(%rbp),%eax
    9d19:	0f b6 c0             	movzbl %al,%eax
    9d1c:	83 e0 07             	and    $0x7,%eax
    9d1f:	89 45 ac             	mov    %eax,-0x54(%rbp)
    9d22:	8b 45 a4             	mov    -0x5c(%rbp),%eax
    9d25:	48 98                	cltq   
    9d27:	48 8d 14 c5 00 00 00 	lea    0x0(,%rax,8),%rdx
    9d2e:	00 
    9d2f:	48 8d 05 0a df 00 00 	lea    0xdf0a(%rip),%rax        # 17c40 <mod_handlers>
    9d36:	4c 8b 14 02          	mov    (%rdx,%rax,1),%r10
    9d3a:	48 8d 75 b0          	lea    -0x50(%rbp),%rsi
    9d3e:	48 8b 4d 90          	mov    -0x70(%rbp),%rcx
    9d42:	8b 55 ac             	mov    -0x54(%rbp),%edx
    9d45:	8b 45 a8             	mov    -0x58(%rbp),%eax
    9d48:	49 89 f1             	mov    %rsi,%r9
    9d4b:	49 89 c8             	mov    %rcx,%r8
    9d4e:	89 d1                	mov    %edx,%ecx
    9d50:	89 c2                	mov    %eax,%edx
    9d52:	be 01 00 00 00       	mov    $0x1,%esi
    9d57:	bf 01 00 00 00       	mov    $0x1,%edi
    9d5c:	41 ff d2             	call   *%r10
    9d5f:	48 8b 45 90          	mov    -0x70(%rbp),%rax
    9d63:	48 83 c0 38          	add    $0x38,%rax
    9d67:	ff 75 e8             	push   -0x18(%rbp)
    9d6a:	ff 75 e0             	push   -0x20(%rbp)
    9d6d:	ff 75 d8             	push   -0x28(%rbp)
    9d70:	ff 75 d0             	push   -0x30(%rbp)
    9d73:	ff 75 c8             	push   -0x38(%rbp)
    9d76:	ff 75 c0             	push   -0x40(%rbp)
    9d79:	ff 75 b8             	push   -0x48(%rbp)
    9d7c:	ff 75 b0             	push   -0x50(%rbp)
    9d7f:	48 89 c7             	mov    %rax,%rdi
    9d82:	e8 11 78 00 00       	call   11598 <instruction_list__push>
    9d87:	48 83 c4 40          	add    $0x40,%rsp
    9d8b:	90                   	nop
    9d8c:	48 8b 45 f8          	mov    -0x8(%rbp),%rax
    9d90:	64 48 2b 04 25 28 00 	sub    %fs:0x28,%rax
    9d97:	00 00 
    9d99:	74 05                	je     9da0 <opcode__lea+0x122>
    9d9b:	e8 d0 e3 ff ff       	call   8170 <__stack_chk_fail@plt>
    9da0:	c9                   	leave  
    9da1:	c3                   	ret    

0000000000009da2 <opcode__lds>:
    9da2:	f3 0f 1e fa          	endbr64 
    9da6:	55                   	push   %rbp
    9da7:	48 89 e5             	mov    %rsp,%rbp
    9daa:	48 83 ec 70          	sub    $0x70,%rsp
    9dae:	89 f8                	mov    %edi,%eax
    9db0:	48 89 75 90          	mov    %rsi,-0x70(%rbp)
    9db4:	88 45 9c             	mov    %al,-0x64(%rbp)
    9db7:	64 48 8b 04 25 28 00 	mov    %fs:0x28,%rax
    9dbe:	00 00 
    9dc0:	48 89 45 f8          	mov    %rax,-0x8(%rbp)
    9dc4:	31 c0                	xor    %eax,%eax
    9dc6:	48 8b 45 90          	mov    -0x70(%rbp),%rax
    9dca:	48 89 c7             	mov    %rax,%rdi
    9dcd:	e8 8c 75 00 00       	call   1135e <file_reader__read_bytes_so_far>
    9dd2:	8d 50 ff             	lea    -0x1(%rax),%edx
    9dd5:	48 8d 45 b0          	lea    -0x50(%rbp),%rax
    9dd9:	89 d6                	mov    %edx,%esi
    9ddb:	48 89 c7             	mov    %rax,%rdi
    9dde:	e8 90 75 00 00       	call   11373 <instruction__create>
    9de3:	48 8d 45 b0          	lea    -0x50(%rbp),%rax
    9de7:	48 8d 15 a0 83 00 00 	lea    0x83a0(%rip),%rdx        # 1218e <_IO_stdin_used+0x18e>
    9dee:	48 89 d6             	mov    %rdx,%rsi
    9df1:	48 89 c7             	mov    %rax,%rdi
    9df4:	b8 00 00 00 00       	mov    $0x0,%eax
    9df9:	e8 bc 75 00 00       	call   113ba <instruction__push>
    9dfe:	48 8b 45 90          	mov    -0x70(%rbp),%rax
    9e02:	48 8b 50 20          	mov    0x20(%rax),%rdx
    9e06:	48 8b 45 90          	mov    -0x70(%rbp),%rax
    9e0a:	48 8d 4d a3          	lea    -0x5d(%rbp),%rcx
    9e0e:	48 89 ce             	mov    %rcx,%rsi
    9e11:	48 89 c7             	mov    %rax,%rdi
    9e14:	e8 54 74 00 00       	call   1126d <file_reader__read_byte>
    9e19:	0f b6 45 a3          	movzbl -0x5d(%rbp),%eax
    9e1d:	c0 e8 06             	shr    $0x6,%al
    9e20:	0f b6 c0             	movzbl %al,%eax
    9e23:	83 e0 03             	and    $0x3,%eax
    9e26:	89 45 a4             	mov    %eax,-0x5c(%rbp)
    9e29:	0f b6 45 a3          	movzbl -0x5d(%rbp),%eax
    9e2d:	c0 e8 03             	shr    $0x3,%al
    9e30:	0f b6 c0             	movzbl %al,%eax
    9e33:	83 e0 07             	and    $0x7,%eax
    9e36:	89 45 a8             	mov    %eax,-0x58(%rbp)
    9e39:	0f b6 45 a3          	movzbl -0x5d(%rbp),%eax
    9e3d:	0f b6 c0             	movzbl %al,%eax
    9e40:	83 e0 07             	and    $0x7,%eax
    9e43:	89 45 ac             	mov    %eax,-0x54(%rbp)
    9e46:	8b 45 a4             	mov    -0x5c(%rbp),%eax
    9e49:	48 98                	cltq   
    9e4b:	48 8d 14 c5 00 00 00 	lea    0x0(,%rax,8),%rdx
    9e52:	00 
    9e53:	48 8d 05 e6 dd 00 00 	lea    0xdde6(%rip),%rax        # 17c40 <mod_handlers>
    9e5a:	4c 8b 14 02          	mov    (%rdx,%rax,1),%r10
    9e5e:	48 8d 75 b0          	lea    -0x50(%rbp),%rsi
    9e62:	48 8b 4d 90          	mov    -0x70(%rbp),%rcx
    9e66:	8b 55 ac             	mov    -0x54(%rbp),%edx
    9e69:	8b 45 a8             	mov    -0x58(%rbp),%eax
    9e6c:	49 89 f1             	mov    %rsi,%r9
    9e6f:	49 89 c8             	mov    %rcx,%r8
    9e72:	89 d1                	mov    %edx,%ecx
    9e74:	89 c2                	mov    %eax,%edx
    9e76:	be 01 00 00 00       	mov    $0x1,%esi
    9e7b:	bf 01 00 00 00       	mov    $0x1,%edi
    9e80:	41 ff d2             	call   *%r10
    9e83:	48 8b 45 90          	mov    -0x70(%rbp),%rax
    9e87:	48 83 c0 38          	add    $0x38,%rax
    9e8b:	ff 75 e8             	push   -0x18(%rbp)
    9e8e:	ff 75 e0             	push   -0x20(%rbp)
    9e91:	ff 75 d8             	push   -0x28(%rbp)
    9e94:	ff 75 d0             	push   -0x30(%rbp)
    9e97:	ff 75 c8             	push   -0x38(%rbp)
    9e9a:	ff 75 c0             	push   -0x40(%rbp)
    9e9d:	ff 75 b8             	push   -0x48(%rbp)
    9ea0:	ff 75 b0             	push   -0x50(%rbp)
    9ea3:	48 89 c7             	mov    %rax,%rdi
    9ea6:	e8 ed 76 00 00       	call   11598 <instruction_list__push>
    9eab:	48 83 c4 40          	add    $0x40,%rsp
    9eaf:	90                   	nop
    9eb0:	48 8b 45 f8          	mov    -0x8(%rbp),%rax
    9eb4:	64 48 2b 04 25 28 00 	sub    %fs:0x28,%rax
    9ebb:	00 00 
    9ebd:	74 05                	je     9ec4 <opcode__lds+0x122>
    9ebf:	e8 ac e2 ff ff       	call   8170 <__stack_chk_fail@plt>
    9ec4:	c9                   	leave  
    9ec5:	c3                   	ret    

0000000000009ec6 <opcode__les>:
    9ec6:	f3 0f 1e fa          	endbr64 
    9eca:	55                   	push   %rbp
    9ecb:	48 89 e5             	mov    %rsp,%rbp
    9ece:	48 83 ec 70          	sub    $0x70,%rsp
    9ed2:	89 f8                	mov    %edi,%eax
    9ed4:	48 89 75 90          	mov    %rsi,-0x70(%rbp)
    9ed8:	88 45 9c             	mov    %al,-0x64(%rbp)
    9edb:	64 48 8b 04 25 28 00 	mov    %fs:0x28,%rax
    9ee2:	00 00 
    9ee4:	48 89 45 f8          	mov    %rax,-0x8(%rbp)
    9ee8:	31 c0                	xor    %eax,%eax
    9eea:	48 8b 45 90          	mov    -0x70(%rbp),%rax
    9eee:	48 89 c7             	mov    %rax,%rdi
    9ef1:	e8 68 74 00 00       	call   1135e <file_reader__read_bytes_so_far>
    9ef6:	8d 50 ff             	lea    -0x1(%rax),%edx
    9ef9:	48 8d 45 b0          	lea    -0x50(%rbp),%rax
    9efd:	89 d6                	mov    %edx,%esi
    9eff:	48 89 c7             	mov    %rax,%rdi
    9f02:	e8 6c 74 00 00       	call   11373 <instruction__create>
    9f07:	48 8d 45 b0          	lea    -0x50(%rbp),%rax
    9f0b:	48 8d 15 81 82 00 00 	lea    0x8281(%rip),%rdx        # 12193 <_IO_stdin_used+0x193>
    9f12:	48 89 d6             	mov    %rdx,%rsi
    9f15:	48 89 c7             	mov    %rax,%rdi
    9f18:	b8 00 00 00 00       	mov    $0x0,%eax
    9f1d:	e8 98 74 00 00       	call   113ba <instruction__push>
    9f22:	48 8b 45 90          	mov    -0x70(%rbp),%rax
    9f26:	48 8b 50 20          	mov    0x20(%rax),%rdx
    9f2a:	48 8b 45 90          	mov    -0x70(%rbp),%rax
    9f2e:	48 8d 4d a3          	lea    -0x5d(%rbp),%rcx
    9f32:	48 89 ce             	mov    %rcx,%rsi
    9f35:	48 89 c7             	mov    %rax,%rdi
    9f38:	e8 30 73 00 00       	call   1126d <file_reader__read_byte>
    9f3d:	0f b6 45 a3          	movzbl -0x5d(%rbp),%eax
    9f41:	c0 e8 06             	shr    $0x6,%al
    9f44:	0f b6 c0             	movzbl %al,%eax
    9f47:	83 e0 03             	and    $0x3,%eax
    9f4a:	89 45 a4             	mov    %eax,-0x5c(%rbp)
    9f4d:	0f b6 45 a3          	movzbl -0x5d(%rbp),%eax
    9f51:	c0 e8 03             	shr    $0x3,%al
    9f54:	0f b6 c0             	movzbl %al,%eax
    9f57:	83 e0 07             	and    $0x7,%eax
    9f5a:	89 45 a8             	mov    %eax,-0x58(%rbp)
    9f5d:	0f b6 45 a3          	movzbl -0x5d(%rbp),%eax
    9f61:	0f b6 c0             	movzbl %al,%eax
    9f64:	83 e0 07             	and    $0x7,%eax
    9f67:	89 45 ac             	mov    %eax,-0x54(%rbp)
    9f6a:	8b 45 a4             	mov    -0x5c(%rbp),%eax
    9f6d:	48 98                	cltq   
    9f6f:	48 8d 14 c5 00 00 00 	lea    0x0(,%rax,8),%rdx
    9f76:	00 
    9f77:	48 8d 05 c2 dc 00 00 	lea    0xdcc2(%rip),%rax        # 17c40 <mod_handlers>
    9f7e:	4c 8b 14 02          	mov    (%rdx,%rax,1),%r10
    9f82:	48 8d 75 b0          	lea    -0x50(%rbp),%rsi
    9f86:	48 8b 4d 90          	mov    -0x70(%rbp),%rcx
    9f8a:	8b 55 ac             	mov    -0x54(%rbp),%edx
    9f8d:	8b 45 a8             	mov    -0x58(%rbp),%eax
    9f90:	49 89 f1             	mov    %rsi,%r9
    9f93:	49 89 c8             	mov    %rcx,%r8
    9f96:	89 d1                	mov    %edx,%ecx
    9f98:	89 c2                	mov    %eax,%edx
    9f9a:	be 01 00 00 00       	mov    $0x1,%esi
    9f9f:	bf 01 00 00 00       	mov    $0x1,%edi
    9fa4:	41 ff d2             	call   *%r10
    9fa7:	48 8b 45 90          	mov    -0x70(%rbp),%rax
    9fab:	48 83 c0 38          	add    $0x38,%rax
    9faf:	ff 75 e8             	push   -0x18(%rbp)
    9fb2:	ff 75 e0             	push   -0x20(%rbp)
    9fb5:	ff 75 d8             	push   -0x28(%rbp)
    9fb8:	ff 75 d0             	push   -0x30(%rbp)
    9fbb:	ff 75 c8             	push   -0x38(%rbp)
    9fbe:	ff 75 c0             	push   -0x40(%rbp)
    9fc1:	ff 75 b8             	push   -0x48(%rbp)
    9fc4:	ff 75 b0             	push   -0x50(%rbp)
    9fc7:	48 89 c7             	mov    %rax,%rdi
    9fca:	e8 c9 75 00 00       	call   11598 <instruction_list__push>
    9fcf:	48 83 c4 40          	add    $0x40,%rsp
    9fd3:	90                   	nop
    9fd4:	48 8b 45 f8          	mov    -0x8(%rbp),%rax
    9fd8:	64 48 2b 04 25 28 00 	sub    %fs:0x28,%rax
    9fdf:	00 00 
    9fe1:	74 05                	je     9fe8 <opcode__les+0x122>
    9fe3:	e8 88 e1 ff ff       	call   8170 <__stack_chk_fail@plt>
    9fe8:	c9                   	leave  
    9fe9:	c3                   	ret    

0000000000009fea <opcode__lahf>:
    9fea:	f3 0f 1e fa          	endbr64 
    9fee:	55                   	push   %rbp
    9fef:	48 89 e5             	mov    %rsp,%rbp
    9ff2:	48 83 ec 60          	sub    $0x60,%rsp
    9ff6:	89 f8                	mov    %edi,%eax
    9ff8:	48 89 75 a0          	mov    %rsi,-0x60(%rbp)
    9ffc:	88 45 ac             	mov    %al,-0x54(%rbp)
    9fff:	64 48 8b 04 25 28 00 	mov    %fs:0x28,%rax
    a006:	00 00 
    a008:	48 89 45 f8          	mov    %rax,-0x8(%rbp)
    a00c:	31 c0                	xor    %eax,%eax
    a00e:	48 8b 45 a0          	mov    -0x60(%rbp),%rax
    a012:	48 89 c7             	mov    %rax,%rdi
    a015:	e8 44 73 00 00       	call   1135e <file_reader__read_bytes_so_far>
    a01a:	8d 50 ff             	lea    -0x1(%rax),%edx
    a01d:	48 8d 45 b0          	lea    -0x50(%rbp),%rax
    a021:	89 d6                	mov    %edx,%esi
    a023:	48 89 c7             	mov    %rax,%rdi
    a026:	e8 48 73 00 00       	call   11373 <instruction__create>
    a02b:	48 8d 45 b0          	lea    -0x50(%rbp),%rax
    a02f:	48 8d 15 62 81 00 00 	lea    0x8162(%rip),%rdx        # 12198 <_IO_stdin_used+0x198>
    a036:	48 89 d6             	mov    %rdx,%rsi
    a039:	48 89 c7             	mov    %rax,%rdi
    a03c:	b8 00 00 00 00       	mov    $0x0,%eax
    a041:	e8 74 73 00 00       	call   113ba <instruction__push>
    a046:	48 8b 45 a0          	mov    -0x60(%rbp),%rax
    a04a:	48 83 c0 38          	add    $0x38,%rax
    a04e:	ff 75 e8             	push   -0x18(%rbp)
    a051:	ff 75 e0             	push   -0x20(%rbp)
    a054:	ff 75 d8             	push   -0x28(%rbp)
    a057:	ff 75 d0             	push   -0x30(%rbp)
    a05a:	ff 75 c8             	push   -0x38(%rbp)
    a05d:	ff 75 c0             	push   -0x40(%rbp)
    a060:	ff 75 b8             	push   -0x48(%rbp)
    a063:	ff 75 b0             	push   -0x50(%rbp)
    a066:	48 89 c7             	mov    %rax,%rdi
    a069:	e8 2a 75 00 00       	call   11598 <instruction_list__push>
    a06e:	48 83 c4 40          	add    $0x40,%rsp
    a072:	90                   	nop
    a073:	48 8b 45 f8          	mov    -0x8(%rbp),%rax
    a077:	64 48 2b 04 25 28 00 	sub    %fs:0x28,%rax
    a07e:	00 00 
    a080:	74 05                	je     a087 <opcode__lahf+0x9d>
    a082:	e8 e9 e0 ff ff       	call   8170 <__stack_chk_fail@plt>
    a087:	c9                   	leave  
    a088:	c3                   	ret    

000000000000a089 <opcode__sahf>:
    a089:	f3 0f 1e fa          	endbr64 
    a08d:	55                   	push   %rbp
    a08e:	48 89 e5             	mov    %rsp,%rbp
    a091:	48 83 ec 60          	sub    $0x60,%rsp
    a095:	89 f8                	mov    %edi,%eax
    a097:	48 89 75 a0          	mov    %rsi,-0x60(%rbp)
    a09b:	88 45 ac             	mov    %al,-0x54(%rbp)
    a09e:	64 48 8b 04 25 28 00 	mov    %fs:0x28,%rax
    a0a5:	00 00 
    a0a7:	48 89 45 f8          	mov    %rax,-0x8(%rbp)
    a0ab:	31 c0                	xor    %eax,%eax
    a0ad:	48 8b 45 a0          	mov    -0x60(%rbp),%rax
    a0b1:	48 89 c7             	mov    %rax,%rdi
    a0b4:	e8 a5 72 00 00       	call   1135e <file_reader__read_bytes_so_far>
    a0b9:	8d 50 ff             	lea    -0x1(%rax),%edx
    a0bc:	48 8d 45 b0          	lea    -0x50(%rbp),%rax
    a0c0:	89 d6                	mov    %edx,%esi
    a0c2:	48 89 c7             	mov    %rax,%rdi
    a0c5:	e8 a9 72 00 00       	call   11373 <instruction__create>
    a0ca:	48 8d 45 b0          	lea    -0x50(%rbp),%rax
    a0ce:	48 8d 15 c8 80 00 00 	lea    0x80c8(%rip),%rdx        # 1219d <_IO_stdin_used+0x19d>
    a0d5:	48 89 d6             	mov    %rdx,%rsi
    a0d8:	48 89 c7             	mov    %rax,%rdi
    a0db:	b8 00 00 00 00       	mov    $0x0,%eax
    a0e0:	e8 d5 72 00 00       	call   113ba <instruction__push>
    a0e5:	48 8b 45 a0          	mov    -0x60(%rbp),%rax
    a0e9:	48 83 c0 38          	add    $0x38,%rax
    a0ed:	ff 75 e8             	push   -0x18(%rbp)
    a0f0:	ff 75 e0             	push   -0x20(%rbp)
    a0f3:	ff 75 d8             	push   -0x28(%rbp)
    a0f6:	ff 75 d0             	push   -0x30(%rbp)
    a0f9:	ff 75 c8             	push   -0x38(%rbp)
    a0fc:	ff 75 c0             	push   -0x40(%rbp)
    a0ff:	ff 75 b8             	push   -0x48(%rbp)
    a102:	ff 75 b0             	push   -0x50(%rbp)
    a105:	48 89 c7             	mov    %rax,%rdi
    a108:	e8 8b 74 00 00       	call   11598 <instruction_list__push>
    a10d:	48 83 c4 40          	add    $0x40,%rsp
    a111:	90                   	nop
    a112:	48 8b 45 f8          	mov    -0x8(%rbp),%rax
    a116:	64 48 2b 04 25 28 00 	sub    %fs:0x28,%rax
    a11d:	00 00 
    a11f:	74 05                	je     a126 <opcode__sahf+0x9d>
    a121:	e8 4a e0 ff ff       	call   8170 <__stack_chk_fail@plt>
    a126:	c9                   	leave  
    a127:	c3                   	ret    

000000000000a128 <opcode__pushf>:
    a128:	f3 0f 1e fa          	endbr64 
    a12c:	55                   	push   %rbp
    a12d:	48 89 e5             	mov    %rsp,%rbp
    a130:	48 83 ec 60          	sub    $0x60,%rsp
    a134:	89 f8                	mov    %edi,%eax
    a136:	48 89 75 a0          	mov    %rsi,-0x60(%rbp)
    a13a:	88 45 ac             	mov    %al,-0x54(%rbp)
    a13d:	64 48 8b 04 25 28 00 	mov    %fs:0x28,%rax
    a144:	00 00 
    a146:	48 89 45 f8          	mov    %rax,-0x8(%rbp)
    a14a:	31 c0                	xor    %eax,%eax
    a14c:	48 8b 45 a0          	mov    -0x60(%rbp),%rax
    a150:	48 89 c7             	mov    %rax,%rdi
    a153:	e8 06 72 00 00       	call   1135e <file_reader__read_bytes_so_far>
    a158:	8d 50 ff             	lea    -0x1(%rax),%edx
    a15b:	48 8d 45 b0          	lea    -0x50(%rbp),%rax
    a15f:	89 d6                	mov    %edx,%esi
    a161:	48 89 c7             	mov    %rax,%rdi
    a164:	e8 0a 72 00 00       	call   11373 <instruction__create>
    a169:	48 8d 45 b0          	lea    -0x50(%rbp),%rax
    a16d:	48 8d 15 2e 80 00 00 	lea    0x802e(%rip),%rdx        # 121a2 <_IO_stdin_used+0x1a2>
    a174:	48 89 d6             	mov    %rdx,%rsi
    a177:	48 89 c7             	mov    %rax,%rdi
    a17a:	b8 00 00 00 00       	mov    $0x0,%eax
    a17f:	e8 36 72 00 00       	call   113ba <instruction__push>
    a184:	48 8b 45 a0          	mov    -0x60(%rbp),%rax
    a188:	48 83 c0 38          	add    $0x38,%rax
    a18c:	ff 75 e8             	push   -0x18(%rbp)
    a18f:	ff 75 e0             	push   -0x20(%rbp)
    a192:	ff 75 d8             	push   -0x28(%rbp)
    a195:	ff 75 d0             	push   -0x30(%rbp)
    a198:	ff 75 c8             	push   -0x38(%rbp)
    a19b:	ff 75 c0             	push   -0x40(%rbp)
    a19e:	ff 75 b8             	push   -0x48(%rbp)
    a1a1:	ff 75 b0             	push   -0x50(%rbp)
    a1a4:	48 89 c7             	mov    %rax,%rdi
    a1a7:	e8 ec 73 00 00       	call   11598 <instruction_list__push>
    a1ac:	48 83 c4 40          	add    $0x40,%rsp
    a1b0:	90                   	nop
    a1b1:	48 8b 45 f8          	mov    -0x8(%rbp),%rax
    a1b5:	64 48 2b 04 25 28 00 	sub    %fs:0x28,%rax
    a1bc:	00 00 
    a1be:	74 05                	je     a1c5 <opcode__pushf+0x9d>
    a1c0:	e8 ab df ff ff       	call   8170 <__stack_chk_fail@plt>
    a1c5:	c9                   	leave  
    a1c6:	c3                   	ret    

000000000000a1c7 <opcode__popf>:
    a1c7:	f3 0f 1e fa          	endbr64 
    a1cb:	55                   	push   %rbp
    a1cc:	48 89 e5             	mov    %rsp,%rbp
    a1cf:	48 83 ec 60          	sub    $0x60,%rsp
    a1d3:	89 f8                	mov    %edi,%eax
    a1d5:	48 89 75 a0          	mov    %rsi,-0x60(%rbp)
    a1d9:	88 45 ac             	mov    %al,-0x54(%rbp)
    a1dc:	64 48 8b 04 25 28 00 	mov    %fs:0x28,%rax
    a1e3:	00 00 
    a1e5:	48 89 45 f8          	mov    %rax,-0x8(%rbp)
    a1e9:	31 c0                	xor    %eax,%eax
    a1eb:	48 8b 45 a0          	mov    -0x60(%rbp),%rax
    a1ef:	48 89 c7             	mov    %rax,%rdi
    a1f2:	e8 67 71 00 00       	call   1135e <file_reader__read_bytes_so_far>
    a1f7:	8d 50 ff             	lea    -0x1(%rax),%edx
    a1fa:	48 8d 45 b0          	lea    -0x50(%rbp),%rax
    a1fe:	89 d6                	mov    %edx,%esi
    a200:	48 89 c7             	mov    %rax,%rdi
    a203:	e8 6b 71 00 00       	call   11373 <instruction__create>
    a208:	48 8d 45 b0          	lea    -0x50(%rbp),%rax
    a20c:	48 8d 15 95 7f 00 00 	lea    0x7f95(%rip),%rdx        # 121a8 <_IO_stdin_used+0x1a8>
    a213:	48 89 d6             	mov    %rdx,%rsi
    a216:	48 89 c7             	mov    %rax,%rdi
    a219:	b8 00 00 00 00       	mov    $0x0,%eax
    a21e:	e8 97 71 00 00       	call   113ba <instruction__push>
    a223:	48 8b 45 a0          	mov    -0x60(%rbp),%rax
    a227:	48 83 c0 38          	add    $0x38,%rax
    a22b:	ff 75 e8             	push   -0x18(%rbp)
    a22e:	ff 75 e0             	push   -0x20(%rbp)
    a231:	ff 75 d8             	push   -0x28(%rbp)
    a234:	ff 75 d0             	push   -0x30(%rbp)
    a237:	ff 75 c8             	push   -0x38(%rbp)
    a23a:	ff 75 c0             	push   -0x40(%rbp)
    a23d:	ff 75 b8             	push   -0x48(%rbp)
    a240:	ff 75 b0             	push   -0x50(%rbp)
    a243:	48 89 c7             	mov    %rax,%rdi
    a246:	e8 4d 73 00 00       	call   11598 <instruction_list__push>
    a24b:	48 83 c4 40          	add    $0x40,%rsp
    a24f:	90                   	nop
    a250:	48 8b 45 f8          	mov    -0x8(%rbp),%rax
    a254:	64 48 2b 04 25 28 00 	sub    %fs:0x28,%rax
    a25b:	00 00 
    a25d:	74 05                	je     a264 <opcode__popf+0x9d>
    a25f:	e8 0c df ff ff       	call   8170 <__stack_chk_fail@plt>
    a264:	c9                   	leave  
    a265:	c3                   	ret    

000000000000a266 <opcode__add_0000_00xx>:
    a266:	f3 0f 1e fa          	endbr64 
    a26a:	55                   	push   %rbp
    a26b:	48 89 e5             	mov    %rsp,%rbp
    a26e:	48 83 c4 80          	add    $0xffffffffffffff80,%rsp
    a272:	89 f8                	mov    %edi,%eax
    a274:	48 89 75 80          	mov    %rsi,-0x80(%rbp)
    a278:	88 45 8c             	mov    %al,-0x74(%rbp)
    a27b:	64 48 8b 04 25 28 00 	mov    %fs:0x28,%rax
    a282:	00 00 
    a284:	48 89 45 f8          	mov    %rax,-0x8(%rbp)
    a288:	31 c0                	xor    %eax,%eax
    a28a:	48 8b 45 80          	mov    -0x80(%rbp),%rax
    a28e:	48 89 c7             	mov    %rax,%rdi
    a291:	e8 c8 70 00 00       	call   1135e <file_reader__read_bytes_so_far>
    a296:	8d 50 ff             	lea    -0x1(%rax),%edx
    a299:	48 8d 45 b0          	lea    -0x50(%rbp),%rax
    a29d:	89 d6                	mov    %edx,%esi
    a29f:	48 89 c7             	mov    %rax,%rdi
    a2a2:	e8 cc 70 00 00       	call   11373 <instruction__create>
    a2a7:	48 8d 45 b0          	lea    -0x50(%rbp),%rax
    a2ab:	48 8d 15 fb 7e 00 00 	lea    0x7efb(%rip),%rdx        # 121ad <_IO_stdin_used+0x1ad>
    a2b2:	48 89 d6             	mov    %rdx,%rsi
    a2b5:	48 89 c7             	mov    %rax,%rdi
    a2b8:	b8 00 00 00 00       	mov    $0x0,%eax
    a2bd:	e8 f8 70 00 00       	call   113ba <instruction__push>
    a2c2:	0f b6 45 8c          	movzbl -0x74(%rbp),%eax
    a2c6:	d0 e8                	shr    %al
    a2c8:	0f b6 c0             	movzbl %al,%eax
    a2cb:	83 e0 01             	and    $0x1,%eax
    a2ce:	89 45 9c             	mov    %eax,-0x64(%rbp)
    a2d1:	0f b6 45 8c          	movzbl -0x74(%rbp),%eax
    a2d5:	83 e0 01             	and    $0x1,%eax
    a2d8:	89 45 a0             	mov    %eax,-0x60(%rbp)
    a2db:	48 8b 45 80          	mov    -0x80(%rbp),%rax
    a2df:	48 8b 50 20          	mov    0x20(%rax),%rdx
    a2e3:	48 8b 45 80          	mov    -0x80(%rbp),%rax
    a2e7:	48 8d 4d 9b          	lea    -0x65(%rbp),%rcx
    a2eb:	48 89 ce             	mov    %rcx,%rsi
    a2ee:	48 89 c7             	mov    %rax,%rdi
    a2f1:	e8 77 6f 00 00       	call   1126d <file_reader__read_byte>
    a2f6:	0f b6 45 9b          	movzbl -0x65(%rbp),%eax
    a2fa:	c0 e8 06             	shr    $0x6,%al
    a2fd:	0f b6 c0             	movzbl %al,%eax
    a300:	83 e0 03             	and    $0x3,%eax
    a303:	89 45 a4             	mov    %eax,-0x5c(%rbp)
    a306:	0f b6 45 9b          	movzbl -0x65(%rbp),%eax
    a30a:	c0 e8 03             	shr    $0x3,%al
    a30d:	0f b6 c0             	movzbl %al,%eax
    a310:	83 e0 07             	and    $0x7,%eax
    a313:	89 45 a8             	mov    %eax,-0x58(%rbp)
    a316:	0f b6 45 9b          	movzbl -0x65(%rbp),%eax
    a31a:	0f b6 c0             	movzbl %al,%eax
    a31d:	83 e0 07             	and    $0x7,%eax
    a320:	89 45 ac             	mov    %eax,-0x54(%rbp)
    a323:	8b 45 a4             	mov    -0x5c(%rbp),%eax
    a326:	48 98                	cltq   
    a328:	48 8d 14 c5 00 00 00 	lea    0x0(,%rax,8),%rdx
    a32f:	00 
    a330:	48 8d 05 09 d9 00 00 	lea    0xd909(%rip),%rax        # 17c40 <mod_handlers>
    a337:	4c 8b 14 02          	mov    (%rdx,%rax,1),%r10
    a33b:	4c 8d 45 b0          	lea    -0x50(%rbp),%r8
    a33f:	48 8b 7d 80          	mov    -0x80(%rbp),%rdi
    a343:	8b 4d ac             	mov    -0x54(%rbp),%ecx
    a346:	8b 55 a8             	mov    -0x58(%rbp),%edx
    a349:	8b 75 9c             	mov    -0x64(%rbp),%esi
    a34c:	8b 45 a0             	mov    -0x60(%rbp),%eax
    a34f:	4d 89 c1             	mov    %r8,%r9
    a352:	49 89 f8             	mov    %rdi,%r8
    a355:	89 c7                	mov    %eax,%edi
    a357:	41 ff d2             	call   *%r10
    a35a:	48 8b 45 80          	mov    -0x80(%rbp),%rax
    a35e:	48 83 c0 38          	add    $0x38,%rax
    a362:	ff 75 e8             	push   -0x18(%rbp)
    a365:	ff 75 e0             	push   -0x20(%rbp)
    a368:	ff 75 d8             	push   -0x28(%rbp)
    a36b:	ff 75 d0             	push   -0x30(%rbp)
    a36e:	ff 75 c8             	push   -0x38(%rbp)
    a371:	ff 75 c0             	push   -0x40(%rbp)
    a374:	ff 75 b8             	push   -0x48(%rbp)
    a377:	ff 75 b0             	push   -0x50(%rbp)
    a37a:	48 89 c7             	mov    %rax,%rdi
    a37d:	e8 16 72 00 00       	call   11598 <instruction_list__push>
    a382:	48 83 c4 40          	add    $0x40,%rsp
    a386:	90                   	nop
    a387:	48 8b 45 f8          	mov    -0x8(%rbp),%rax
    a38b:	64 48 2b 04 25 28 00 	sub    %fs:0x28,%rax
    a392:	00 00 
    a394:	74 05                	je     a39b <opcode__add_0000_00xx+0x135>
    a396:	e8 d5 dd ff ff       	call   8170 <__stack_chk_fail@plt>
    a39b:	c9                   	leave  
    a39c:	c3                   	ret    

000000000000a39d <opcode__cont_add_1000_00xx>:
    a39d:	f3 0f 1e fa          	endbr64 
    a3a1:	55                   	push   %rbp
    a3a2:	48 89 e5             	mov    %rsp,%rbp
    a3a5:	48 83 ec 70          	sub    $0x70,%rsp
    a3a9:	89 f9                	mov    %edi,%ecx
    a3ab:	89 f0                	mov    %esi,%eax
    a3ad:	48 89 55 90          	mov    %rdx,-0x70(%rbp)
    a3b1:	89 ca                	mov    %ecx,%edx
    a3b3:	88 55 9c             	mov    %dl,-0x64(%rbp)
    a3b6:	88 45 98             	mov    %al,-0x68(%rbp)
    a3b9:	64 48 8b 04 25 28 00 	mov    %fs:0x28,%rax
    a3c0:	00 00 
    a3c2:	48 89 45 f8          	mov    %rax,-0x8(%rbp)
    a3c6:	31 c0                	xor    %eax,%eax
    a3c8:	48 8b 45 90          	mov    -0x70(%rbp),%rax
    a3cc:	48 89 c7             	mov    %rax,%rdi
    a3cf:	e8 8a 6f 00 00       	call   1135e <file_reader__read_bytes_so_far>
    a3d4:	8d 50 ff             	lea    -0x1(%rax),%edx
    a3d7:	48 8d 45 b0          	lea    -0x50(%rbp),%rax
    a3db:	89 d6                	mov    %edx,%esi
    a3dd:	48 89 c7             	mov    %rax,%rdi
    a3e0:	e8 8e 6f 00 00       	call   11373 <instruction__create>
    a3e5:	48 8d 45 b0          	lea    -0x50(%rbp),%rax
    a3e9:	48 8d 15 bd 7d 00 00 	lea    0x7dbd(%rip),%rdx        # 121ad <_IO_stdin_used+0x1ad>
    a3f0:	48 89 d6             	mov    %rdx,%rsi
    a3f3:	48 89 c7             	mov    %rax,%rdi
    a3f6:	b8 00 00 00 00       	mov    $0x0,%eax
    a3fb:	e8 ba 6f 00 00       	call   113ba <instruction__push>
    a400:	0f b6 45 9c          	movzbl -0x64(%rbp),%eax
    a404:	d0 e8                	shr    %al
    a406:	0f b6 c0             	movzbl %al,%eax
    a409:	83 e0 01             	and    $0x1,%eax
    a40c:	89 45 a0             	mov    %eax,-0x60(%rbp)
    a40f:	0f b6 45 9c          	movzbl -0x64(%rbp),%eax
    a413:	83 e0 01             	and    $0x1,%eax
    a416:	89 45 a4             	mov    %eax,-0x5c(%rbp)
    a419:	0f b6 45 98          	movzbl -0x68(%rbp),%eax
    a41d:	c0 e8 06             	shr    $0x6,%al
    a420:	0f b6 c0             	movzbl %al,%eax
    a423:	83 e0 03             	and    $0x3,%eax
    a426:	89 45 a8             	mov    %eax,-0x58(%rbp)
    a429:	0f b6 45 98          	movzbl -0x68(%rbp),%eax
    a42d:	83 e0 07             	and    $0x7,%eax
    a430:	89 45 ac             	mov    %eax,-0x54(%rbp)
    a433:	8b 45 a8             	mov    -0x58(%rbp),%eax
    a436:	48 98                	cltq   
    a438:	48 8d 14 c5 00 00 00 	lea    0x0(,%rax,8),%rdx
    a43f:	00 
    a440:	48 8d 05 39 d8 00 00 	lea    0xd839(%rip),%rax        # 17c80 <mod_immediate_signed_handlers>
    a447:	4c 8b 0c 02          	mov    (%rdx,%rax,1),%r9
    a44b:	48 8d 7d b0          	lea    -0x50(%rbp),%rdi
    a44f:	48 8b 4d 90          	mov    -0x70(%rbp),%rcx
    a453:	8b 55 ac             	mov    -0x54(%rbp),%edx
    a456:	8b 75 a4             	mov    -0x5c(%rbp),%esi
    a459:	8b 45 a0             	mov    -0x60(%rbp),%eax
    a45c:	49 89 f8             	mov    %rdi,%r8
    a45f:	89 c7                	mov    %eax,%edi
    a461:	41 ff d1             	call   *%r9
    a464:	48 8b 45 90          	mov    -0x70(%rbp),%rax
    a468:	48 83 c0 38          	add    $0x38,%rax
    a46c:	ff 75 e8             	push   -0x18(%rbp)
    a46f:	ff 75 e0             	push   -0x20(%rbp)
    a472:	ff 75 d8             	push   -0x28(%rbp)
    a475:	ff 75 d0             	push   -0x30(%rbp)
    a478:	ff 75 c8             	push   -0x38(%rbp)
    a47b:	ff 75 c0             	push   -0x40(%rbp)
    a47e:	ff 75 b8             	push   -0x48(%rbp)
    a481:	ff 75 b0             	push   -0x50(%rbp)
    a484:	48 89 c7             	mov    %rax,%rdi
    a487:	e8 0c 71 00 00       	call   11598 <instruction_list__push>
    a48c:	48 83 c4 40          	add    $0x40,%rsp
    a490:	90                   	nop
    a491:	48 8b 45 f8          	mov    -0x8(%rbp),%rax
    a495:	64 48 2b 04 25 28 00 	sub    %fs:0x28,%rax
    a49c:	00 00 
    a49e:	74 05                	je     a4a5 <opcode__cont_add_1000_00xx+0x108>
    a4a0:	e8 cb dc ff ff       	call   8170 <__stack_chk_fail@plt>
    a4a5:	c9                   	leave  
    a4a6:	c3                   	ret    

000000000000a4a7 <opcode__add_0000_010x>:
    a4a7:	f3 0f 1e fa          	endbr64 
    a4ab:	55                   	push   %rbp
    a4ac:	48 89 e5             	mov    %rsp,%rbp
    a4af:	53                   	push   %rbx
    a4b0:	48 83 ec 78          	sub    $0x78,%rsp
    a4b4:	89 f8                	mov    %edi,%eax
    a4b6:	48 89 75 80          	mov    %rsi,-0x80(%rbp)
    a4ba:	88 45 8c             	mov    %al,-0x74(%rbp)
    a4bd:	64 48 8b 04 25 28 00 	mov    %fs:0x28,%rax
    a4c4:	00 00 
    a4c6:	48 89 45 e8          	mov    %rax,-0x18(%rbp)
    a4ca:	31 c0                	xor    %eax,%eax
    a4cc:	48 8b 45 80          	mov    -0x80(%rbp),%rax
    a4d0:	48 89 c7             	mov    %rax,%rdi
    a4d3:	e8 86 6e 00 00       	call   1135e <file_reader__read_bytes_so_far>
    a4d8:	8d 50 ff             	lea    -0x1(%rax),%edx
    a4db:	48 8d 45 a0          	lea    -0x60(%rbp),%rax
    a4df:	89 d6                	mov    %edx,%esi
    a4e1:	48 89 c7             	mov    %rax,%rdi
    a4e4:	e8 8a 6e 00 00       	call   11373 <instruction__create>
    a4e9:	48 8d 45 a0          	lea    -0x60(%rbp),%rax
    a4ed:	48 8d 15 b9 7c 00 00 	lea    0x7cb9(%rip),%rdx        # 121ad <_IO_stdin_used+0x1ad>
    a4f4:	48 89 d6             	mov    %rdx,%rsi
    a4f7:	48 89 c7             	mov    %rax,%rdi
    a4fa:	b8 00 00 00 00       	mov    $0x0,%eax
    a4ff:	e8 b6 6e 00 00       	call   113ba <instruction__push>
    a504:	0f b6 45 8c          	movzbl -0x74(%rbp),%eax
    a508:	83 e0 01             	and    $0x1,%eax
    a50b:	89 45 9c             	mov    %eax,-0x64(%rbp)
    a50e:	66 c7 45 9a 00 00    	movw   $0x0,-0x66(%rbp)
    a514:	8b 45 9c             	mov    -0x64(%rbp),%eax
    a517:	48 98                	cltq   
    a519:	48 8d 14 c5 00 00 00 	lea    0x0(,%rax,8),%rdx
    a520:	00 
    a521:	48 8d 05 b8 d6 00 00 	lea    0xd6b8(%rip),%rax        # 17be0 <file_reader__read_by_type>
    a528:	4c 8b 04 02          	mov    (%rdx,%rax,1),%r8
    a52c:	48 8b 45 80          	mov    -0x80(%rbp),%rax
    a530:	48 8b 50 20          	mov    0x20(%rax),%rdx
    a534:	48 8b 45 80          	mov    -0x80(%rbp),%rax
    a538:	48 8d 4d 9a          	lea    -0x66(%rbp),%rcx
    a53c:	48 89 ce             	mov    %rcx,%rsi
    a53f:	48 89 c7             	mov    %rax,%rdi
    a542:	41 ff d0             	call   *%r8
    a545:	0f b7 45 9a          	movzwl -0x66(%rbp),%eax
    a549:	0f b7 d8             	movzwl %ax,%ebx
    a54c:	8b 45 9c             	mov    -0x64(%rbp),%eax
    a54f:	89 c6                	mov    %eax,%esi
    a551:	bf 00 00 00 00       	mov    $0x0,%edi
    a556:	e8 7e e3 ff ff       	call   88d9 <reg_to_word>
    a55b:	48 89 c2             	mov    %rax,%rdx
    a55e:	48 8d 45 a0          	lea    -0x60(%rbp),%rax
    a562:	89 d9                	mov    %ebx,%ecx
    a564:	48 8d 35 88 7b 00 00 	lea    0x7b88(%rip),%rsi        # 120f3 <_IO_stdin_used+0xf3>
    a56b:	48 89 c7             	mov    %rax,%rdi
    a56e:	b8 00 00 00 00       	mov    $0x0,%eax
    a573:	e8 42 6e 00 00       	call   113ba <instruction__push>
    a578:	48 8b 45 80          	mov    -0x80(%rbp),%rax
    a57c:	48 83 c0 38          	add    $0x38,%rax
    a580:	ff 75 d8             	push   -0x28(%rbp)
    a583:	ff 75 d0             	push   -0x30(%rbp)
    a586:	ff 75 c8             	push   -0x38(%rbp)
    a589:	ff 75 c0             	push   -0x40(%rbp)
    a58c:	ff 75 b8             	push   -0x48(%rbp)
    a58f:	ff 75 b0             	push   -0x50(%rbp)
    a592:	ff 75 a8             	push   -0x58(%rbp)
    a595:	ff 75 a0             	push   -0x60(%rbp)
    a598:	48 89 c7             	mov    %rax,%rdi
    a59b:	e8 f8 6f 00 00       	call   11598 <instruction_list__push>
    a5a0:	48 83 c4 40          	add    $0x40,%rsp
    a5a4:	90                   	nop
    a5a5:	48 8b 45 e8          	mov    -0x18(%rbp),%rax
    a5a9:	64 48 2b 04 25 28 00 	sub    %fs:0x28,%rax
    a5b0:	00 00 
    a5b2:	74 05                	je     a5b9 <opcode__add_0000_010x+0x112>
    a5b4:	e8 b7 db ff ff       	call   8170 <__stack_chk_fail@plt>
    a5b9:	48 8b 5d f8          	mov    -0x8(%rbp),%rbx
    a5bd:	c9                   	leave  
    a5be:	c3                   	ret    

000000000000a5bf <opcode__adc_0001_00xx>:
    a5bf:	f3 0f 1e fa          	endbr64 
    a5c3:	55                   	push   %rbp
    a5c4:	48 89 e5             	mov    %rsp,%rbp
    a5c7:	48 83 c4 80          	add    $0xffffffffffffff80,%rsp
    a5cb:	89 f8                	mov    %edi,%eax
    a5cd:	48 89 75 80          	mov    %rsi,-0x80(%rbp)
    a5d1:	88 45 8c             	mov    %al,-0x74(%rbp)
    a5d4:	64 48 8b 04 25 28 00 	mov    %fs:0x28,%rax
    a5db:	00 00 
    a5dd:	48 89 45 f8          	mov    %rax,-0x8(%rbp)
    a5e1:	31 c0                	xor    %eax,%eax
    a5e3:	48 8b 45 80          	mov    -0x80(%rbp),%rax
    a5e7:	48 89 c7             	mov    %rax,%rdi
    a5ea:	e8 6f 6d 00 00       	call   1135e <file_reader__read_bytes_so_far>
    a5ef:	8d 50 ff             	lea    -0x1(%rax),%edx
    a5f2:	48 8d 45 b0          	lea    -0x50(%rbp),%rax
    a5f6:	89 d6                	mov    %edx,%esi
    a5f8:	48 89 c7             	mov    %rax,%rdi
    a5fb:	e8 73 6d 00 00       	call   11373 <instruction__create>
    a600:	48 8d 45 b0          	lea    -0x50(%rbp),%rax
    a604:	48 8d 15 a7 7b 00 00 	lea    0x7ba7(%rip),%rdx        # 121b2 <_IO_stdin_used+0x1b2>
    a60b:	48 89 d6             	mov    %rdx,%rsi
    a60e:	48 89 c7             	mov    %rax,%rdi
    a611:	b8 00 00 00 00       	mov    $0x0,%eax
    a616:	e8 9f 6d 00 00       	call   113ba <instruction__push>
    a61b:	0f b6 45 8c          	movzbl -0x74(%rbp),%eax
    a61f:	d0 e8                	shr    %al
    a621:	0f b6 c0             	movzbl %al,%eax
    a624:	83 e0 01             	and    $0x1,%eax
    a627:	89 45 9c             	mov    %eax,-0x64(%rbp)
    a62a:	0f b6 45 8c          	movzbl -0x74(%rbp),%eax
    a62e:	83 e0 01             	and    $0x1,%eax
    a631:	89 45 a0             	mov    %eax,-0x60(%rbp)
    a634:	48 8b 45 80          	mov    -0x80(%rbp),%rax
    a638:	48 8b 50 20          	mov    0x20(%rax),%rdx
    a63c:	48 8b 45 80          	mov    -0x80(%rbp),%rax
    a640:	48 8d 4d 9b          	lea    -0x65(%rbp),%rcx
    a644:	48 89 ce             	mov    %rcx,%rsi
    a647:	48 89 c7             	mov    %rax,%rdi
    a64a:	e8 1e 6c 00 00       	call   1126d <file_reader__read_byte>
    a64f:	0f b6 45 9b          	movzbl -0x65(%rbp),%eax
    a653:	c0 e8 06             	shr    $0x6,%al
    a656:	0f b6 c0             	movzbl %al,%eax
    a659:	83 e0 03             	and    $0x3,%eax
    a65c:	89 45 a4             	mov    %eax,-0x5c(%rbp)
    a65f:	0f b6 45 9b          	movzbl -0x65(%rbp),%eax
    a663:	c0 e8 03             	shr    $0x3,%al
    a666:	0f b6 c0             	movzbl %al,%eax
    a669:	83 e0 07             	and    $0x7,%eax
    a66c:	89 45 a8             	mov    %eax,-0x58(%rbp)
    a66f:	0f b6 45 9b          	movzbl -0x65(%rbp),%eax
    a673:	0f b6 c0             	movzbl %al,%eax
    a676:	83 e0 07             	and    $0x7,%eax
    a679:	89 45 ac             	mov    %eax,-0x54(%rbp)
    a67c:	8b 45 a4             	mov    -0x5c(%rbp),%eax
    a67f:	48 98                	cltq   
    a681:	48 8d 14 c5 00 00 00 	lea    0x0(,%rax,8),%rdx
    a688:	00 
    a689:	48 8d 05 b0 d5 00 00 	lea    0xd5b0(%rip),%rax        # 17c40 <mod_handlers>
    a690:	4c 8b 14 02          	mov    (%rdx,%rax,1),%r10
    a694:	4c 8d 45 b0          	lea    -0x50(%rbp),%r8
    a698:	48 8b 7d 80          	mov    -0x80(%rbp),%rdi
    a69c:	8b 4d ac             	mov    -0x54(%rbp),%ecx
    a69f:	8b 55 a8             	mov    -0x58(%rbp),%edx
    a6a2:	8b 75 9c             	mov    -0x64(%rbp),%esi
    a6a5:	8b 45 a0             	mov    -0x60(%rbp),%eax
    a6a8:	4d 89 c1             	mov    %r8,%r9
    a6ab:	49 89 f8             	mov    %rdi,%r8
    a6ae:	89 c7                	mov    %eax,%edi
    a6b0:	41 ff d2             	call   *%r10
    a6b3:	48 8b 45 80          	mov    -0x80(%rbp),%rax
    a6b7:	48 83 c0 38          	add    $0x38,%rax
    a6bb:	ff 75 e8             	push   -0x18(%rbp)
    a6be:	ff 75 e0             	push   -0x20(%rbp)
    a6c1:	ff 75 d8             	push   -0x28(%rbp)
    a6c4:	ff 75 d0             	push   -0x30(%rbp)
    a6c7:	ff 75 c8             	push   -0x38(%rbp)
    a6ca:	ff 75 c0             	push   -0x40(%rbp)
    a6cd:	ff 75 b8             	push   -0x48(%rbp)
    a6d0:	ff 75 b0             	push   -0x50(%rbp)
    a6d3:	48 89 c7             	mov    %rax,%rdi
    a6d6:	e8 bd 6e 00 00       	call   11598 <instruction_list__push>
    a6db:	48 83 c4 40          	add    $0x40,%rsp
    a6df:	90                   	nop
    a6e0:	48 8b 45 f8          	mov    -0x8(%rbp),%rax
    a6e4:	64 48 2b 04 25 28 00 	sub    %fs:0x28,%rax
    a6eb:	00 00 
    a6ed:	74 05                	je     a6f4 <opcode__adc_0001_00xx+0x135>
    a6ef:	e8 7c da ff ff       	call   8170 <__stack_chk_fail@plt>
    a6f4:	c9                   	leave  
    a6f5:	c3                   	ret    

000000000000a6f6 <opcode__cont_adc_1000_00xx>:
    a6f6:	f3 0f 1e fa          	endbr64 
    a6fa:	55                   	push   %rbp
    a6fb:	48 89 e5             	mov    %rsp,%rbp
    a6fe:	48 83 ec 70          	sub    $0x70,%rsp
    a702:	89 f9                	mov    %edi,%ecx
    a704:	89 f0                	mov    %esi,%eax
    a706:	48 89 55 90          	mov    %rdx,-0x70(%rbp)
    a70a:	89 ca                	mov    %ecx,%edx
    a70c:	88 55 9c             	mov    %dl,-0x64(%rbp)
    a70f:	88 45 98             	mov    %al,-0x68(%rbp)
    a712:	64 48 8b 04 25 28 00 	mov    %fs:0x28,%rax
    a719:	00 00 
    a71b:	48 89 45 f8          	mov    %rax,-0x8(%rbp)
    a71f:	31 c0                	xor    %eax,%eax
    a721:	48 8b 45 90          	mov    -0x70(%rbp),%rax
    a725:	48 89 c7             	mov    %rax,%rdi
    a728:	e8 31 6c 00 00       	call   1135e <file_reader__read_bytes_so_far>
    a72d:	8d 50 ff             	lea    -0x1(%rax),%edx
    a730:	48 8d 45 b0          	lea    -0x50(%rbp),%rax
    a734:	89 d6                	mov    %edx,%esi
    a736:	48 89 c7             	mov    %rax,%rdi
    a739:	e8 35 6c 00 00       	call   11373 <instruction__create>
    a73e:	48 8d 45 b0          	lea    -0x50(%rbp),%rax
    a742:	48 8d 15 69 7a 00 00 	lea    0x7a69(%rip),%rdx        # 121b2 <_IO_stdin_used+0x1b2>
    a749:	48 89 d6             	mov    %rdx,%rsi
    a74c:	48 89 c7             	mov    %rax,%rdi
    a74f:	b8 00 00 00 00       	mov    $0x0,%eax
    a754:	e8 61 6c 00 00       	call   113ba <instruction__push>
    a759:	0f b6 45 9c          	movzbl -0x64(%rbp),%eax
    a75d:	d0 e8                	shr    %al
    a75f:	0f b6 c0             	movzbl %al,%eax
    a762:	83 e0 01             	and    $0x1,%eax
    a765:	89 45 a0             	mov    %eax,-0x60(%rbp)
    a768:	0f b6 45 9c          	movzbl -0x64(%rbp),%eax
    a76c:	83 e0 01             	and    $0x1,%eax
    a76f:	89 45 a4             	mov    %eax,-0x5c(%rbp)
    a772:	0f b6 45 98          	movzbl -0x68(%rbp),%eax
    a776:	c0 e8 06             	shr    $0x6,%al
    a779:	0f b6 c0             	movzbl %al,%eax
    a77c:	83 e0 03             	and    $0x3,%eax
    a77f:	89 45 a8             	mov    %eax,-0x58(%rbp)
    a782:	0f b6 45 98          	movzbl -0x68(%rbp),%eax
    a786:	83 e0 07             	and    $0x7,%eax
    a789:	89 45 ac             	mov    %eax,-0x54(%rbp)
    a78c:	8b 45 a8             	mov    -0x58(%rbp),%eax
    a78f:	48 98                	cltq   
    a791:	48 8d 14 c5 00 00 00 	lea    0x0(,%rax,8),%rdx
    a798:	00 
    a799:	48 8d 05 e0 d4 00 00 	lea    0xd4e0(%rip),%rax        # 17c80 <mod_immediate_signed_handlers>
    a7a0:	4c 8b 0c 02          	mov    (%rdx,%rax,1),%r9
    a7a4:	48 8d 7d b0          	lea    -0x50(%rbp),%rdi
    a7a8:	48 8b 4d 90          	mov    -0x70(%rbp),%rcx
    a7ac:	8b 55 ac             	mov    -0x54(%rbp),%edx
    a7af:	8b 75 a4             	mov    -0x5c(%rbp),%esi
    a7b2:	8b 45 a0             	mov    -0x60(%rbp),%eax
    a7b5:	49 89 f8             	mov    %rdi,%r8
    a7b8:	89 c7                	mov    %eax,%edi
    a7ba:	41 ff d1             	call   *%r9
    a7bd:	48 8b 45 90          	mov    -0x70(%rbp),%rax
    a7c1:	48 83 c0 38          	add    $0x38,%rax
    a7c5:	ff 75 e8             	push   -0x18(%rbp)
    a7c8:	ff 75 e0             	push   -0x20(%rbp)
    a7cb:	ff 75 d8             	push   -0x28(%rbp)
    a7ce:	ff 75 d0             	push   -0x30(%rbp)
    a7d1:	ff 75 c8             	push   -0x38(%rbp)
    a7d4:	ff 75 c0             	push   -0x40(%rbp)
    a7d7:	ff 75 b8             	push   -0x48(%rbp)
    a7da:	ff 75 b0             	push   -0x50(%rbp)
    a7dd:	48 89 c7             	mov    %rax,%rdi
    a7e0:	e8 b3 6d 00 00       	call   11598 <instruction_list__push>
    a7e5:	48 83 c4 40          	add    $0x40,%rsp
    a7e9:	90                   	nop
    a7ea:	48 8b 45 f8          	mov    -0x8(%rbp),%rax
    a7ee:	64 48 2b 04 25 28 00 	sub    %fs:0x28,%rax
    a7f5:	00 00 
    a7f7:	74 05                	je     a7fe <opcode__cont_adc_1000_00xx+0x108>
    a7f9:	e8 72 d9 ff ff       	call   8170 <__stack_chk_fail@plt>
    a7fe:	c9                   	leave  
    a7ff:	c3                   	ret    

000000000000a800 <opcode__adc_0001_010x>:
    a800:	f3 0f 1e fa          	endbr64 
    a804:	55                   	push   %rbp
    a805:	48 89 e5             	mov    %rsp,%rbp
    a808:	53                   	push   %rbx
    a809:	48 83 ec 78          	sub    $0x78,%rsp
    a80d:	89 f8                	mov    %edi,%eax
    a80f:	48 89 75 80          	mov    %rsi,-0x80(%rbp)
    a813:	88 45 8c             	mov    %al,-0x74(%rbp)
    a816:	64 48 8b 04 25 28 00 	mov    %fs:0x28,%rax
    a81d:	00 00 
    a81f:	48 89 45 e8          	mov    %rax,-0x18(%rbp)
    a823:	31 c0                	xor    %eax,%eax
    a825:	48 8b 45 80          	mov    -0x80(%rbp),%rax
    a829:	48 89 c7             	mov    %rax,%rdi
    a82c:	e8 2d 6b 00 00       	call   1135e <file_reader__read_bytes_so_far>
    a831:	8d 50 ff             	lea    -0x1(%rax),%edx
    a834:	48 8d 45 a0          	lea    -0x60(%rbp),%rax
    a838:	89 d6                	mov    %edx,%esi
    a83a:	48 89 c7             	mov    %rax,%rdi
    a83d:	e8 31 6b 00 00       	call   11373 <instruction__create>
    a842:	48 8d 45 a0          	lea    -0x60(%rbp),%rax
    a846:	48 8d 15 65 79 00 00 	lea    0x7965(%rip),%rdx        # 121b2 <_IO_stdin_used+0x1b2>
    a84d:	48 89 d6             	mov    %rdx,%rsi
    a850:	48 89 c7             	mov    %rax,%rdi
    a853:	b8 00 00 00 00       	mov    $0x0,%eax
    a858:	e8 5d 6b 00 00       	call   113ba <instruction__push>
    a85d:	0f b6 45 8c          	movzbl -0x74(%rbp),%eax
    a861:	83 e0 01             	and    $0x1,%eax
    a864:	89 45 9c             	mov    %eax,-0x64(%rbp)
    a867:	66 c7 45 9a 00 00    	movw   $0x0,-0x66(%rbp)
    a86d:	8b 45 9c             	mov    -0x64(%rbp),%eax
    a870:	48 98                	cltq   
    a872:	48 8d 14 c5 00 00 00 	lea    0x0(,%rax,8),%rdx
    a879:	00 
    a87a:	48 8d 05 5f d3 00 00 	lea    0xd35f(%rip),%rax        # 17be0 <file_reader__read_by_type>
    a881:	4c 8b 04 02          	mov    (%rdx,%rax,1),%r8
    a885:	48 8b 45 80          	mov    -0x80(%rbp),%rax
    a889:	48 8b 50 20          	mov    0x20(%rax),%rdx
    a88d:	48 8b 45 80          	mov    -0x80(%rbp),%rax
    a891:	48 8d 4d 9a          	lea    -0x66(%rbp),%rcx
    a895:	48 89 ce             	mov    %rcx,%rsi
    a898:	48 89 c7             	mov    %rax,%rdi
    a89b:	41 ff d0             	call   *%r8
    a89e:	0f b7 45 9a          	movzwl -0x66(%rbp),%eax
    a8a2:	0f b7 d8             	movzwl %ax,%ebx
    a8a5:	8b 45 9c             	mov    -0x64(%rbp),%eax
    a8a8:	89 c6                	mov    %eax,%esi
    a8aa:	bf 00 00 00 00       	mov    $0x0,%edi
    a8af:	e8 25 e0 ff ff       	call   88d9 <reg_to_word>
    a8b4:	48 89 c2             	mov    %rax,%rdx
    a8b7:	48 8d 45 a0          	lea    -0x60(%rbp),%rax
    a8bb:	89 d9                	mov    %ebx,%ecx
    a8bd:	48 8d 35 2f 78 00 00 	lea    0x782f(%rip),%rsi        # 120f3 <_IO_stdin_used+0xf3>
    a8c4:	48 89 c7             	mov    %rax,%rdi
    a8c7:	b8 00 00 00 00       	mov    $0x0,%eax
    a8cc:	e8 e9 6a 00 00       	call   113ba <instruction__push>
    a8d1:	48 8b 45 80          	mov    -0x80(%rbp),%rax
    a8d5:	48 83 c0 38          	add    $0x38,%rax
    a8d9:	ff 75 d8             	push   -0x28(%rbp)
    a8dc:	ff 75 d0             	push   -0x30(%rbp)
    a8df:	ff 75 c8             	push   -0x38(%rbp)
    a8e2:	ff 75 c0             	push   -0x40(%rbp)
    a8e5:	ff 75 b8             	push   -0x48(%rbp)
    a8e8:	ff 75 b0             	push   -0x50(%rbp)
    a8eb:	ff 75 a8             	push   -0x58(%rbp)
    a8ee:	ff 75 a0             	push   -0x60(%rbp)
    a8f1:	48 89 c7             	mov    %rax,%rdi
    a8f4:	e8 9f 6c 00 00       	call   11598 <instruction_list__push>
    a8f9:	48 83 c4 40          	add    $0x40,%rsp
    a8fd:	90                   	nop
    a8fe:	48 8b 45 e8          	mov    -0x18(%rbp),%rax
    a902:	64 48 2b 04 25 28 00 	sub    %fs:0x28,%rax
    a909:	00 00 
    a90b:	74 05                	je     a912 <opcode__adc_0001_010x+0x112>
    a90d:	e8 5e d8 ff ff       	call   8170 <__stack_chk_fail@plt>
    a912:	48 8b 5d f8          	mov    -0x8(%rbp),%rbx
    a916:	c9                   	leave  
    a917:	c3                   	ret    

000000000000a918 <opcode__cont_inc_1111_111x>:
    a918:	f3 0f 1e fa          	endbr64 
    a91c:	55                   	push   %rbp
    a91d:	48 89 e5             	mov    %rsp,%rbp
    a920:	48 83 ec 70          	sub    $0x70,%rsp
    a924:	89 f9                	mov    %edi,%ecx
    a926:	89 f0                	mov    %esi,%eax
    a928:	48 89 55 90          	mov    %rdx,-0x70(%rbp)
    a92c:	89 ca                	mov    %ecx,%edx
    a92e:	88 55 9c             	mov    %dl,-0x64(%rbp)
    a931:	88 45 98             	mov    %al,-0x68(%rbp)
    a934:	64 48 8b 04 25 28 00 	mov    %fs:0x28,%rax
    a93b:	00 00 
    a93d:	48 89 45 f8          	mov    %rax,-0x8(%rbp)
    a941:	31 c0                	xor    %eax,%eax
    a943:	48 8b 45 90          	mov    -0x70(%rbp),%rax
    a947:	48 89 c7             	mov    %rax,%rdi
    a94a:	e8 0f 6a 00 00       	call   1135e <file_reader__read_bytes_so_far>
    a94f:	8d 50 ff             	lea    -0x1(%rax),%edx
    a952:	48 8d 45 b0          	lea    -0x50(%rbp),%rax
    a956:	89 d6                	mov    %edx,%esi
    a958:	48 89 c7             	mov    %rax,%rdi
    a95b:	e8 13 6a 00 00       	call   11373 <instruction__create>
    a960:	48 8d 45 b0          	lea    -0x50(%rbp),%rax
    a964:	48 8d 15 4c 78 00 00 	lea    0x784c(%rip),%rdx        # 121b7 <_IO_stdin_used+0x1b7>
    a96b:	48 89 d6             	mov    %rdx,%rsi
    a96e:	48 89 c7             	mov    %rax,%rdi
    a971:	b8 00 00 00 00       	mov    $0x0,%eax
    a976:	e8 3f 6a 00 00       	call   113ba <instruction__push>
    a97b:	0f b6 45 9c          	movzbl -0x64(%rbp),%eax
    a97f:	83 e0 01             	and    $0x1,%eax
    a982:	89 45 a4             	mov    %eax,-0x5c(%rbp)
    a985:	0f b6 45 98          	movzbl -0x68(%rbp),%eax
    a989:	c0 e8 06             	shr    $0x6,%al
    a98c:	0f b6 c0             	movzbl %al,%eax
    a98f:	83 e0 03             	and    $0x3,%eax
    a992:	89 45 a8             	mov    %eax,-0x58(%rbp)
    a995:	0f b6 45 98          	movzbl -0x68(%rbp),%eax
    a999:	83 e0 07             	and    $0x7,%eax
    a99c:	89 45 ac             	mov    %eax,-0x54(%rbp)
    a99f:	8b 45 a8             	mov    -0x58(%rbp),%eax
    a9a2:	48 98                	cltq   
    a9a4:	48 8d 14 c5 00 00 00 	lea    0x0(,%rax,8),%rdx
    a9ab:	00 
    a9ac:	48 8d 05 ed d2 00 00 	lea    0xd2ed(%rip),%rax        # 17ca0 <mod_source_only_handlers>
    a9b3:	4c 8b 04 02          	mov    (%rdx,%rax,1),%r8
    a9b7:	48 8d 4d b0          	lea    -0x50(%rbp),%rcx
    a9bb:	48 8b 55 90          	mov    -0x70(%rbp),%rdx
    a9bf:	8b 75 ac             	mov    -0x54(%rbp),%esi
    a9c2:	8b 45 a4             	mov    -0x5c(%rbp),%eax
    a9c5:	89 c7                	mov    %eax,%edi
    a9c7:	41 ff d0             	call   *%r8
    a9ca:	48 8b 45 90          	mov    -0x70(%rbp),%rax
    a9ce:	48 83 c0 38          	add    $0x38,%rax
    a9d2:	ff 75 e8             	push   -0x18(%rbp)
    a9d5:	ff 75 e0             	push   -0x20(%rbp)
    a9d8:	ff 75 d8             	push   -0x28(%rbp)
    a9db:	ff 75 d0             	push   -0x30(%rbp)
    a9de:	ff 75 c8             	push   -0x38(%rbp)
    a9e1:	ff 75 c0             	push   -0x40(%rbp)
    a9e4:	ff 75 b8             	push   -0x48(%rbp)
    a9e7:	ff 75 b0             	push   -0x50(%rbp)
    a9ea:	48 89 c7             	mov    %rax,%rdi
    a9ed:	e8 a6 6b 00 00       	call   11598 <instruction_list__push>
    a9f2:	48 83 c4 40          	add    $0x40,%rsp
    a9f6:	90                   	nop
    a9f7:	48 8b 45 f8          	mov    -0x8(%rbp),%rax
    a9fb:	64 48 2b 04 25 28 00 	sub    %fs:0x28,%rax
    aa02:	00 00 
    aa04:	74 05                	je     aa0b <opcode__cont_inc_1111_111x+0xf3>
    aa06:	e8 65 d7 ff ff       	call   8170 <__stack_chk_fail@plt>
    aa0b:	c9                   	leave  
    aa0c:	c3                   	ret    

000000000000aa0d <opcode__inc_0100_0xxx>:
    aa0d:	f3 0f 1e fa          	endbr64 
    aa11:	55                   	push   %rbp
    aa12:	48 89 e5             	mov    %rsp,%rbp
    aa15:	48 83 ec 70          	sub    $0x70,%rsp
    aa19:	89 f8                	mov    %edi,%eax
    aa1b:	48 89 75 90          	mov    %rsi,-0x70(%rbp)
    aa1f:	88 45 9c             	mov    %al,-0x64(%rbp)
    aa22:	64 48 8b 04 25 28 00 	mov    %fs:0x28,%rax
    aa29:	00 00 
    aa2b:	48 89 45 f8          	mov    %rax,-0x8(%rbp)
    aa2f:	31 c0                	xor    %eax,%eax
    aa31:	48 8b 45 90          	mov    -0x70(%rbp),%rax
    aa35:	48 89 c7             	mov    %rax,%rdi
    aa38:	e8 21 69 00 00       	call   1135e <file_reader__read_bytes_so_far>
    aa3d:	8d 50 ff             	lea    -0x1(%rax),%edx
    aa40:	48 8d 45 b0          	lea    -0x50(%rbp),%rax
    aa44:	89 d6                	mov    %edx,%esi
    aa46:	48 89 c7             	mov    %rax,%rdi
    aa49:	e8 25 69 00 00       	call   11373 <instruction__create>
    aa4e:	48 8d 45 b0          	lea    -0x50(%rbp),%rax
    aa52:	48 8d 15 5e 77 00 00 	lea    0x775e(%rip),%rdx        # 121b7 <_IO_stdin_used+0x1b7>
    aa59:	48 89 d6             	mov    %rdx,%rsi
    aa5c:	48 89 c7             	mov    %rax,%rdi
    aa5f:	b8 00 00 00 00       	mov    $0x0,%eax
    aa64:	e8 51 69 00 00       	call   113ba <instruction__push>
    aa69:	0f b6 45 9c          	movzbl -0x64(%rbp),%eax
    aa6d:	83 e0 07             	and    $0x7,%eax
    aa70:	89 45 ac             	mov    %eax,-0x54(%rbp)
    aa73:	8b 45 ac             	mov    -0x54(%rbp),%eax
    aa76:	be 01 00 00 00       	mov    $0x1,%esi
    aa7b:	89 c7                	mov    %eax,%edi
    aa7d:	e8 57 de ff ff       	call   88d9 <reg_to_word>
    aa82:	48 89 c2             	mov    %rax,%rdx
    aa85:	48 8d 45 b0          	lea    -0x50(%rbp),%rax
    aa89:	48 8d 0d cc 76 00 00 	lea    0x76cc(%rip),%rcx        # 1215c <_IO_stdin_used+0x15c>
    aa90:	48 89 ce             	mov    %rcx,%rsi
    aa93:	48 89 c7             	mov    %rax,%rdi
    aa96:	b8 00 00 00 00       	mov    $0x0,%eax
    aa9b:	e8 1a 69 00 00       	call   113ba <instruction__push>
    aaa0:	48 8b 45 90          	mov    -0x70(%rbp),%rax
    aaa4:	48 83 c0 38          	add    $0x38,%rax
    aaa8:	ff 75 e8             	push   -0x18(%rbp)
    aaab:	ff 75 e0             	push   -0x20(%rbp)
    aaae:	ff 75 d8             	push   -0x28(%rbp)
    aab1:	ff 75 d0             	push   -0x30(%rbp)
    aab4:	ff 75 c8             	push   -0x38(%rbp)
    aab7:	ff 75 c0             	push   -0x40(%rbp)
    aaba:	ff 75 b8             	push   -0x48(%rbp)
    aabd:	ff 75 b0             	push   -0x50(%rbp)
    aac0:	48 89 c7             	mov    %rax,%rdi
    aac3:	e8 d0 6a 00 00       	call   11598 <instruction_list__push>
    aac8:	48 83 c4 40          	add    $0x40,%rsp
    aacc:	90                   	nop
    aacd:	48 8b 45 f8          	mov    -0x8(%rbp),%rax
    aad1:	64 48 2b 04 25 28 00 	sub    %fs:0x28,%rax
    aad8:	00 00 
    aada:	74 05                	je     aae1 <opcode__inc_0100_0xxx+0xd4>
    aadc:	e8 8f d6 ff ff       	call   8170 <__stack_chk_fail@plt>
    aae1:	c9                   	leave  
    aae2:	c3                   	ret    

000000000000aae3 <opcode__aaa>:
    aae3:	f3 0f 1e fa          	endbr64 
    aae7:	55                   	push   %rbp
    aae8:	48 89 e5             	mov    %rsp,%rbp
    aaeb:	48 83 ec 60          	sub    $0x60,%rsp
    aaef:	89 f8                	mov    %edi,%eax
    aaf1:	48 89 75 a0          	mov    %rsi,-0x60(%rbp)
    aaf5:	88 45 ac             	mov    %al,-0x54(%rbp)
    aaf8:	64 48 8b 04 25 28 00 	mov    %fs:0x28,%rax
    aaff:	00 00 
    ab01:	48 89 45 f8          	mov    %rax,-0x8(%rbp)
    ab05:	31 c0                	xor    %eax,%eax
    ab07:	48 8b 45 a0          	mov    -0x60(%rbp),%rax
    ab0b:	48 89 c7             	mov    %rax,%rdi
    ab0e:	e8 4b 68 00 00       	call   1135e <file_reader__read_bytes_so_far>
    ab13:	8d 50 ff             	lea    -0x1(%rax),%edx
    ab16:	48 8d 45 b0          	lea    -0x50(%rbp),%rax
    ab1a:	89 d6                	mov    %edx,%esi
    ab1c:	48 89 c7             	mov    %rax,%rdi
    ab1f:	e8 4f 68 00 00       	call   11373 <instruction__create>
    ab24:	48 8d 45 b0          	lea    -0x50(%rbp),%rax
    ab28:	48 8d 15 8d 76 00 00 	lea    0x768d(%rip),%rdx        # 121bc <_IO_stdin_used+0x1bc>
    ab2f:	48 89 d6             	mov    %rdx,%rsi
    ab32:	48 89 c7             	mov    %rax,%rdi
    ab35:	b8 00 00 00 00       	mov    $0x0,%eax
    ab3a:	e8 7b 68 00 00       	call   113ba <instruction__push>
    ab3f:	48 8b 45 a0          	mov    -0x60(%rbp),%rax
    ab43:	48 83 c0 38          	add    $0x38,%rax
    ab47:	ff 75 e8             	push   -0x18(%rbp)
    ab4a:	ff 75 e0             	push   -0x20(%rbp)
    ab4d:	ff 75 d8             	push   -0x28(%rbp)
    ab50:	ff 75 d0             	push   -0x30(%rbp)
    ab53:	ff 75 c8             	push   -0x38(%rbp)
    ab56:	ff 75 c0             	push   -0x40(%rbp)
    ab59:	ff 75 b8             	push   -0x48(%rbp)
    ab5c:	ff 75 b0             	push   -0x50(%rbp)
    ab5f:	48 89 c7             	mov    %rax,%rdi
    ab62:	e8 31 6a 00 00       	call   11598 <instruction_list__push>
    ab67:	48 83 c4 40          	add    $0x40,%rsp
    ab6b:	90                   	nop
    ab6c:	48 8b 45 f8          	mov    -0x8(%rbp),%rax
    ab70:	64 48 2b 04 25 28 00 	sub    %fs:0x28,%rax
    ab77:	00 00 
    ab79:	74 05                	je     ab80 <opcode__aaa+0x9d>
    ab7b:	e8 f0 d5 ff ff       	call   8170 <__stack_chk_fail@plt>
    ab80:	c9                   	leave  
    ab81:	c3                   	ret    

000000000000ab82 <opcode__daa>:
    ab82:	f3 0f 1e fa          	endbr64 
    ab86:	55                   	push   %rbp
    ab87:	48 89 e5             	mov    %rsp,%rbp
    ab8a:	48 83 ec 60          	sub    $0x60,%rsp
    ab8e:	89 f8                	mov    %edi,%eax
    ab90:	48 89 75 a0          	mov    %rsi,-0x60(%rbp)
    ab94:	88 45 ac             	mov    %al,-0x54(%rbp)
    ab97:	64 48 8b 04 25 28 00 	mov    %fs:0x28,%rax
    ab9e:	00 00 
    aba0:	48 89 45 f8          	mov    %rax,-0x8(%rbp)
    aba4:	31 c0                	xor    %eax,%eax
    aba6:	48 8b 45 a0          	mov    -0x60(%rbp),%rax
    abaa:	48 89 c7             	mov    %rax,%rdi
    abad:	e8 ac 67 00 00       	call   1135e <file_reader__read_bytes_so_far>
    abb2:	8d 50 ff             	lea    -0x1(%rax),%edx
    abb5:	48 8d 45 b0          	lea    -0x50(%rbp),%rax
    abb9:	89 d6                	mov    %edx,%esi
    abbb:	48 89 c7             	mov    %rax,%rdi
    abbe:	e8 b0 67 00 00       	call   11373 <instruction__create>
    abc3:	48 8d 45 b0          	lea    -0x50(%rbp),%rax
    abc7:	48 8d 15 f2 75 00 00 	lea    0x75f2(%rip),%rdx        # 121c0 <_IO_stdin_used+0x1c0>
    abce:	48 89 d6             	mov    %rdx,%rsi
    abd1:	48 89 c7             	mov    %rax,%rdi
    abd4:	b8 00 00 00 00       	mov    $0x0,%eax
    abd9:	e8 dc 67 00 00       	call   113ba <instruction__push>
    abde:	48 8b 45 a0          	mov    -0x60(%rbp),%rax
    abe2:	48 83 c0 38          	add    $0x38,%rax
    abe6:	ff 75 e8             	push   -0x18(%rbp)
    abe9:	ff 75 e0             	push   -0x20(%rbp)
    abec:	ff 75 d8             	push   -0x28(%rbp)
    abef:	ff 75 d0             	push   -0x30(%rbp)
    abf2:	ff 75 c8             	push   -0x38(%rbp)
    abf5:	ff 75 c0             	push   -0x40(%rbp)
    abf8:	ff 75 b8             	push   -0x48(%rbp)
    abfb:	ff 75 b0             	push   -0x50(%rbp)
    abfe:	48 89 c7             	mov    %rax,%rdi
    ac01:	e8 92 69 00 00       	call   11598 <instruction_list__push>
    ac06:	48 83 c4 40          	add    $0x40,%rsp
    ac0a:	90                   	nop
    ac0b:	48 8b 45 f8          	mov    -0x8(%rbp),%rax
    ac0f:	64 48 2b 04 25 28 00 	sub    %fs:0x28,%rax
    ac16:	00 00 
    ac18:	74 05                	je     ac1f <opcode__daa+0x9d>
    ac1a:	e8 51 d5 ff ff       	call   8170 <__stack_chk_fail@plt>
    ac1f:	c9                   	leave  
    ac20:	c3                   	ret    

000000000000ac21 <opcode__sub_0010_10xx>:
    ac21:	f3 0f 1e fa          	endbr64 
    ac25:	55                   	push   %rbp
    ac26:	48 89 e5             	mov    %rsp,%rbp
    ac29:	48 83 c4 80          	add    $0xffffffffffffff80,%rsp
    ac2d:	89 f8                	mov    %edi,%eax
    ac2f:	48 89 75 80          	mov    %rsi,-0x80(%rbp)
    ac33:	88 45 8c             	mov    %al,-0x74(%rbp)
    ac36:	64 48 8b 04 25 28 00 	mov    %fs:0x28,%rax
    ac3d:	00 00 
    ac3f:	48 89 45 f8          	mov    %rax,-0x8(%rbp)
    ac43:	31 c0                	xor    %eax,%eax
    ac45:	48 8b 45 80          	mov    -0x80(%rbp),%rax
    ac49:	48 89 c7             	mov    %rax,%rdi
    ac4c:	e8 0d 67 00 00       	call   1135e <file_reader__read_bytes_so_far>
    ac51:	8d 50 ff             	lea    -0x1(%rax),%edx
    ac54:	48 8d 45 b0          	lea    -0x50(%rbp),%rax
    ac58:	89 d6                	mov    %edx,%esi
    ac5a:	48 89 c7             	mov    %rax,%rdi
    ac5d:	e8 11 67 00 00       	call   11373 <instruction__create>
    ac62:	48 8d 45 b0          	lea    -0x50(%rbp),%rax
    ac66:	48 8d 15 57 75 00 00 	lea    0x7557(%rip),%rdx        # 121c4 <_IO_stdin_used+0x1c4>
    ac6d:	48 89 d6             	mov    %rdx,%rsi
    ac70:	48 89 c7             	mov    %rax,%rdi
    ac73:	b8 00 00 00 00       	mov    $0x0,%eax
    ac78:	e8 3d 67 00 00       	call   113ba <instruction__push>
    ac7d:	0f b6 45 8c          	movzbl -0x74(%rbp),%eax
    ac81:	d0 e8                	shr    %al
    ac83:	0f b6 c0             	movzbl %al,%eax
    ac86:	83 e0 01             	and    $0x1,%eax
    ac89:	89 45 9c             	mov    %eax,-0x64(%rbp)
    ac8c:	0f b6 45 8c          	movzbl -0x74(%rbp),%eax
    ac90:	83 e0 01             	and    $0x1,%eax
    ac93:	89 45 a0             	mov    %eax,-0x60(%rbp)
    ac96:	48 8b 45 80          	mov    -0x80(%rbp),%rax
    ac9a:	48 8b 50 20          	mov    0x20(%rax),%rdx
    ac9e:	48 8b 45 80          	mov    -0x80(%rbp),%rax
    aca2:	48 8d 4d 9b          	lea    -0x65(%rbp),%rcx
    aca6:	48 89 ce             	mov    %rcx,%rsi
    aca9:	48 89 c7             	mov    %rax,%rdi
    acac:	e8 bc 65 00 00       	call   1126d <file_reader__read_byte>
    acb1:	0f b6 45 9b          	movzbl -0x65(%rbp),%eax
    acb5:	c0 e8 06             	shr    $0x6,%al
    acb8:	0f b6 c0             	movzbl %al,%eax
    acbb:	83 e0 03             	and    $0x3,%eax
    acbe:	89 45 a4             	mov    %eax,-0x5c(%rbp)
    acc1:	0f b6 45 9b          	movzbl -0x65(%rbp),%eax
    acc5:	c0 e8 03             	shr    $0x3,%al
    acc8:	0f b6 c0             	movzbl %al,%eax
    accb:	83 e0 07             	and    $0x7,%eax
    acce:	89 45 a8             	mov    %eax,-0x58(%rbp)
    acd1:	0f b6 45 9b          	movzbl -0x65(%rbp),%eax
    acd5:	0f b6 c0             	movzbl %al,%eax
    acd8:	83 e0 07             	and    $0x7,%eax
    acdb:	89 45 ac             	mov    %eax,-0x54(%rbp)
    acde:	8b 45 a4             	mov    -0x5c(%rbp),%eax
    ace1:	48 98                	cltq   
    ace3:	48 8d 14 c5 00 00 00 	lea    0x0(,%rax,8),%rdx
    acea:	00 
    aceb:	48 8d 05 4e cf 00 00 	lea    0xcf4e(%rip),%rax        # 17c40 <mod_handlers>
    acf2:	4c 8b 14 02          	mov    (%rdx,%rax,1),%r10
    acf6:	4c 8d 45 b0          	lea    -0x50(%rbp),%r8
    acfa:	48 8b 7d 80          	mov    -0x80(%rbp),%rdi
    acfe:	8b 4d ac             	mov    -0x54(%rbp),%ecx
    ad01:	8b 55 a8             	mov    -0x58(%rbp),%edx
    ad04:	8b 75 9c             	mov    -0x64(%rbp),%esi
    ad07:	8b 45 a0             	mov    -0x60(%rbp),%eax
    ad0a:	4d 89 c1             	mov    %r8,%r9
    ad0d:	49 89 f8             	mov    %rdi,%r8
    ad10:	89 c7                	mov    %eax,%edi
    ad12:	41 ff d2             	call   *%r10
    ad15:	48 8b 45 80          	mov    -0x80(%rbp),%rax
    ad19:	48 83 c0 38          	add    $0x38,%rax
    ad1d:	ff 75 e8             	push   -0x18(%rbp)
    ad20:	ff 75 e0             	push   -0x20(%rbp)
    ad23:	ff 75 d8             	push   -0x28(%rbp)
    ad26:	ff 75 d0             	push   -0x30(%rbp)
    ad29:	ff 75 c8             	push   -0x38(%rbp)
    ad2c:	ff 75 c0             	push   -0x40(%rbp)
    ad2f:	ff 75 b8             	push   -0x48(%rbp)
    ad32:	ff 75 b0             	push   -0x50(%rbp)
    ad35:	48 89 c7             	mov    %rax,%rdi
    ad38:	e8 5b 68 00 00       	call   11598 <instruction_list__push>
    ad3d:	48 83 c4 40          	add    $0x40,%rsp
    ad41:	90                   	nop
    ad42:	48 8b 45 f8          	mov    -0x8(%rbp),%rax
    ad46:	64 48 2b 04 25 28 00 	sub    %fs:0x28,%rax
    ad4d:	00 00 
    ad4f:	74 05                	je     ad56 <opcode__sub_0010_10xx+0x135>
    ad51:	e8 1a d4 ff ff       	call   8170 <__stack_chk_fail@plt>
    ad56:	c9                   	leave  
    ad57:	c3                   	ret    

000000000000ad58 <opcode__cont_sub_1000_00xx>:
    ad58:	f3 0f 1e fa          	endbr64 
    ad5c:	55                   	push   %rbp
    ad5d:	48 89 e5             	mov    %rsp,%rbp
    ad60:	48 83 ec 70          	sub    $0x70,%rsp
    ad64:	89 f9                	mov    %edi,%ecx
    ad66:	89 f0                	mov    %esi,%eax
    ad68:	48 89 55 90          	mov    %rdx,-0x70(%rbp)
    ad6c:	89 ca                	mov    %ecx,%edx
    ad6e:	88 55 9c             	mov    %dl,-0x64(%rbp)
    ad71:	88 45 98             	mov    %al,-0x68(%rbp)
    ad74:	64 48 8b 04 25 28 00 	mov    %fs:0x28,%rax
    ad7b:	00 00 
    ad7d:	48 89 45 f8          	mov    %rax,-0x8(%rbp)
    ad81:	31 c0                	xor    %eax,%eax
    ad83:	48 8b 45 90          	mov    -0x70(%rbp),%rax
    ad87:	48 89 c7             	mov    %rax,%rdi
    ad8a:	e8 cf 65 00 00       	call   1135e <file_reader__read_bytes_so_far>
    ad8f:	8d 50 ff             	lea    -0x1(%rax),%edx
    ad92:	48 8d 45 b0          	lea    -0x50(%rbp),%rax
    ad96:	89 d6                	mov    %edx,%esi
    ad98:	48 89 c7             	mov    %rax,%rdi
    ad9b:	e8 d3 65 00 00       	call   11373 <instruction__create>
    ada0:	48 8d 45 b0          	lea    -0x50(%rbp),%rax
    ada4:	48 8d 15 19 74 00 00 	lea    0x7419(%rip),%rdx        # 121c4 <_IO_stdin_used+0x1c4>
    adab:	48 89 d6             	mov    %rdx,%rsi
    adae:	48 89 c7             	mov    %rax,%rdi
    adb1:	b8 00 00 00 00       	mov    $0x0,%eax
    adb6:	e8 ff 65 00 00       	call   113ba <instruction__push>
    adbb:	0f b6 45 9c          	movzbl -0x64(%rbp),%eax
    adbf:	d0 e8                	shr    %al
    adc1:	0f b6 c0             	movzbl %al,%eax
    adc4:	83 e0 01             	and    $0x1,%eax
    adc7:	89 45 a0             	mov    %eax,-0x60(%rbp)
    adca:	0f b6 45 9c          	movzbl -0x64(%rbp),%eax
    adce:	83 e0 01             	and    $0x1,%eax
    add1:	89 45 a4             	mov    %eax,-0x5c(%rbp)
    add4:	0f b6 45 98          	movzbl -0x68(%rbp),%eax
    add8:	c0 e8 06             	shr    $0x6,%al
    addb:	0f b6 c0             	movzbl %al,%eax
    adde:	83 e0 03             	and    $0x3,%eax
    ade1:	89 45 a8             	mov    %eax,-0x58(%rbp)
    ade4:	0f b6 45 98          	movzbl -0x68(%rbp),%eax
    ade8:	83 e0 07             	and    $0x7,%eax
    adeb:	89 45 ac             	mov    %eax,-0x54(%rbp)
    adee:	8b 45 a8             	mov    -0x58(%rbp),%eax
    adf1:	48 98                	cltq   
    adf3:	48 8d 14 c5 00 00 00 	lea    0x0(,%rax,8),%rdx
    adfa:	00 
    adfb:	48 8d 05 7e ce 00 00 	lea    0xce7e(%rip),%rax        # 17c80 <mod_immediate_signed_handlers>
    ae02:	4c 8b 0c 02          	mov    (%rdx,%rax,1),%r9
    ae06:	48 8d 7d b0          	lea    -0x50(%rbp),%rdi
    ae0a:	48 8b 4d 90          	mov    -0x70(%rbp),%rcx
    ae0e:	8b 55 ac             	mov    -0x54(%rbp),%edx
    ae11:	8b 75 a4             	mov    -0x5c(%rbp),%esi
    ae14:	8b 45 a0             	mov    -0x60(%rbp),%eax
    ae17:	49 89 f8             	mov    %rdi,%r8
    ae1a:	89 c7                	mov    %eax,%edi
    ae1c:	41 ff d1             	call   *%r9
    ae1f:	48 8b 45 90          	mov    -0x70(%rbp),%rax
    ae23:	48 83 c0 38          	add    $0x38,%rax
    ae27:	ff 75 e8             	push   -0x18(%rbp)
    ae2a:	ff 75 e0             	push   -0x20(%rbp)
    ae2d:	ff 75 d8             	push   -0x28(%rbp)
    ae30:	ff 75 d0             	push   -0x30(%rbp)
    ae33:	ff 75 c8             	push   -0x38(%rbp)
    ae36:	ff 75 c0             	push   -0x40(%rbp)
    ae39:	ff 75 b8             	push   -0x48(%rbp)
    ae3c:	ff 75 b0             	push   -0x50(%rbp)
    ae3f:	48 89 c7             	mov    %rax,%rdi
    ae42:	e8 51 67 00 00       	call   11598 <instruction_list__push>
    ae47:	48 83 c4 40          	add    $0x40,%rsp
    ae4b:	90                   	nop
    ae4c:	48 8b 45 f8          	mov    -0x8(%rbp),%rax
    ae50:	64 48 2b 04 25 28 00 	sub    %fs:0x28,%rax
    ae57:	00 00 
    ae59:	74 05                	je     ae60 <opcode__cont_sub_1000_00xx+0x108>
    ae5b:	e8 10 d3 ff ff       	call   8170 <__stack_chk_fail@plt>
    ae60:	c9                   	leave  
    ae61:	c3                   	ret    

000000000000ae62 <opcode__sub_0010_110x>:
    ae62:	f3 0f 1e fa          	endbr64 
    ae66:	55                   	push   %rbp
    ae67:	48 89 e5             	mov    %rsp,%rbp
    ae6a:	53                   	push   %rbx
    ae6b:	48 83 ec 78          	sub    $0x78,%rsp
    ae6f:	89 f8                	mov    %edi,%eax
    ae71:	48 89 75 80          	mov    %rsi,-0x80(%rbp)
    ae75:	88 45 8c             	mov    %al,-0x74(%rbp)
    ae78:	64 48 8b 04 25 28 00 	mov    %fs:0x28,%rax
    ae7f:	00 00 
    ae81:	48 89 45 e8          	mov    %rax,-0x18(%rbp)
    ae85:	31 c0                	xor    %eax,%eax
    ae87:	48 8b 45 80          	mov    -0x80(%rbp),%rax
    ae8b:	48 89 c7             	mov    %rax,%rdi
    ae8e:	e8 cb 64 00 00       	call   1135e <file_reader__read_bytes_so_far>
    ae93:	8d 50 ff             	lea    -0x1(%rax),%edx
    ae96:	48 8d 45 a0          	lea    -0x60(%rbp),%rax
    ae9a:	89 d6                	mov    %edx,%esi
    ae9c:	48 89 c7             	mov    %rax,%rdi
    ae9f:	e8 cf 64 00 00       	call   11373 <instruction__create>
    aea4:	48 8d 45 a0          	lea    -0x60(%rbp),%rax
    aea8:	48 8d 15 15 73 00 00 	lea    0x7315(%rip),%rdx        # 121c4 <_IO_stdin_used+0x1c4>
    aeaf:	48 89 d6             	mov    %rdx,%rsi
    aeb2:	48 89 c7             	mov    %rax,%rdi
    aeb5:	b8 00 00 00 00       	mov    $0x0,%eax
    aeba:	e8 fb 64 00 00       	call   113ba <instruction__push>
    aebf:	0f b6 45 8c          	movzbl -0x74(%rbp),%eax
    aec3:	83 e0 01             	and    $0x1,%eax
    aec6:	89 45 9c             	mov    %eax,-0x64(%rbp)
    aec9:	66 c7 45 9a 00 00    	movw   $0x0,-0x66(%rbp)
    aecf:	8b 45 9c             	mov    -0x64(%rbp),%eax
    aed2:	48 98                	cltq   
    aed4:	48 8d 14 c5 00 00 00 	lea    0x0(,%rax,8),%rdx
    aedb:	00 
    aedc:	48 8d 05 fd cc 00 00 	lea    0xccfd(%rip),%rax        # 17be0 <file_reader__read_by_type>
    aee3:	4c 8b 04 02          	mov    (%rdx,%rax,1),%r8
    aee7:	48 8b 45 80          	mov    -0x80(%rbp),%rax
    aeeb:	48 8b 50 20          	mov    0x20(%rax),%rdx
    aeef:	48 8b 45 80          	mov    -0x80(%rbp),%rax
    aef3:	48 8d 4d 9a          	lea    -0x66(%rbp),%rcx
    aef7:	48 89 ce             	mov    %rcx,%rsi
    aefa:	48 89 c7             	mov    %rax,%rdi
    aefd:	41 ff d0             	call   *%r8
    af00:	0f b7 45 9a          	movzwl -0x66(%rbp),%eax
    af04:	0f b7 d8             	movzwl %ax,%ebx
    af07:	8b 45 9c             	mov    -0x64(%rbp),%eax
    af0a:	89 c6                	mov    %eax,%esi
    af0c:	bf 00 00 00 00       	mov    $0x0,%edi
    af11:	e8 c3 d9 ff ff       	call   88d9 <reg_to_word>
    af16:	48 89 c2             	mov    %rax,%rdx
    af19:	48 8d 45 a0          	lea    -0x60(%rbp),%rax
    af1d:	89 d9                	mov    %ebx,%ecx
    af1f:	48 8d 35 cd 71 00 00 	lea    0x71cd(%rip),%rsi        # 120f3 <_IO_stdin_used+0xf3>
    af26:	48 89 c7             	mov    %rax,%rdi
    af29:	b8 00 00 00 00       	mov    $0x0,%eax
    af2e:	e8 87 64 00 00       	call   113ba <instruction__push>
    af33:	48 8b 45 80          	mov    -0x80(%rbp),%rax
    af37:	48 83 c0 38          	add    $0x38,%rax
    af3b:	ff 75 d8             	push   -0x28(%rbp)
    af3e:	ff 75 d0             	push   -0x30(%rbp)
    af41:	ff 75 c8             	push   -0x38(%rbp)
    af44:	ff 75 c0             	push   -0x40(%rbp)
    af47:	ff 75 b8             	push   -0x48(%rbp)
    af4a:	ff 75 b0             	push   -0x50(%rbp)
    af4d:	ff 75 a8             	push   -0x58(%rbp)
    af50:	ff 75 a0             	push   -0x60(%rbp)
    af53:	48 89 c7             	mov    %rax,%rdi
    af56:	e8 3d 66 00 00       	call   11598 <instruction_list__push>
    af5b:	48 83 c4 40          	add    $0x40,%rsp
    af5f:	90                   	nop
    af60:	48 8b 45 e8          	mov    -0x18(%rbp),%rax
    af64:	64 48 2b 04 25 28 00 	sub    %fs:0x28,%rax
    af6b:	00 00 
    af6d:	74 05                	je     af74 <opcode__sub_0010_110x+0x112>
    af6f:	e8 fc d1 ff ff       	call   8170 <__stack_chk_fail@plt>
    af74:	48 8b 5d f8          	mov    -0x8(%rbp),%rbx
    af78:	c9                   	leave  
    af79:	c3                   	ret    

000000000000af7a <opcode__sbb_0001_10xx>:
    af7a:	f3 0f 1e fa          	endbr64 
    af7e:	55                   	push   %rbp
    af7f:	48 89 e5             	mov    %rsp,%rbp
    af82:	48 83 c4 80          	add    $0xffffffffffffff80,%rsp
    af86:	89 f8                	mov    %edi,%eax
    af88:	48 89 75 80          	mov    %rsi,-0x80(%rbp)
    af8c:	88 45 8c             	mov    %al,-0x74(%rbp)
    af8f:	64 48 8b 04 25 28 00 	mov    %fs:0x28,%rax
    af96:	00 00 
    af98:	48 89 45 f8          	mov    %rax,-0x8(%rbp)
    af9c:	31 c0                	xor    %eax,%eax
    af9e:	48 8b 45 80          	mov    -0x80(%rbp),%rax
    afa2:	48 89 c7             	mov    %rax,%rdi
    afa5:	e8 b4 63 00 00       	call   1135e <file_reader__read_bytes_so_far>
    afaa:	8d 50 ff             	lea    -0x1(%rax),%edx
    afad:	48 8d 45 b0          	lea    -0x50(%rbp),%rax
    afb1:	89 d6                	mov    %edx,%esi
    afb3:	48 89 c7             	mov    %rax,%rdi
    afb6:	e8 b8 63 00 00       	call   11373 <instruction__create>
    afbb:	48 8d 45 b0          	lea    -0x50(%rbp),%rax
    afbf:	48 8d 15 03 72 00 00 	lea    0x7203(%rip),%rdx        # 121c9 <_IO_stdin_used+0x1c9>
    afc6:	48 89 d6             	mov    %rdx,%rsi
    afc9:	48 89 c7             	mov    %rax,%rdi
    afcc:	b8 00 00 00 00       	mov    $0x0,%eax
    afd1:	e8 e4 63 00 00       	call   113ba <instruction__push>
    afd6:	0f b6 45 8c          	movzbl -0x74(%rbp),%eax
    afda:	d0 e8                	shr    %al
    afdc:	0f b6 c0             	movzbl %al,%eax
    afdf:	83 e0 01             	and    $0x1,%eax
    afe2:	89 45 9c             	mov    %eax,-0x64(%rbp)
    afe5:	0f b6 45 8c          	movzbl -0x74(%rbp),%eax
    afe9:	83 e0 01             	and    $0x1,%eax
    afec:	89 45 a0             	mov    %eax,-0x60(%rbp)
    afef:	48 8b 45 80          	mov    -0x80(%rbp),%rax
    aff3:	48 8b 50 20          	mov    0x20(%rax),%rdx
    aff7:	48 8b 45 80          	mov    -0x80(%rbp),%rax
    affb:	48 8d 4d 9b          	lea    -0x65(%rbp),%rcx
    afff:	48 89 ce             	mov    %rcx,%rsi
    b002:	48 89 c7             	mov    %rax,%rdi
    b005:	e8 63 62 00 00       	call   1126d <file_reader__read_byte>
    b00a:	0f b6 45 9b          	movzbl -0x65(%rbp),%eax
    b00e:	c0 e8 06             	shr    $0x6,%al
    b011:	0f b6 c0             	movzbl %al,%eax
    b014:	83 e0 03             	and    $0x3,%eax
    b017:	89 45 a4             	mov    %eax,-0x5c(%rbp)
    b01a:	0f b6 45 9b          	movzbl -0x65(%rbp),%eax
    b01e:	c0 e8 03             	shr    $0x3,%al
    b021:	0f b6 c0             	movzbl %al,%eax
    b024:	83 e0 07             	and    $0x7,%eax
    b027:	89 45 a8             	mov    %eax,-0x58(%rbp)
    b02a:	0f b6 45 9b          	movzbl -0x65(%rbp),%eax
    b02e:	0f b6 c0             	movzbl %al,%eax
    b031:	83 e0 07             	and    $0x7,%eax
    b034:	89 45 ac             	mov    %eax,-0x54(%rbp)
    b037:	8b 45 a4             	mov    -0x5c(%rbp),%eax
    b03a:	48 98                	cltq   
    b03c:	48 8d 14 c5 00 00 00 	lea    0x0(,%rax,8),%rdx
    b043:	00 
    b044:	48 8d 05 f5 cb 00 00 	lea    0xcbf5(%rip),%rax        # 17c40 <mod_handlers>
    b04b:	4c 8b 14 02          	mov    (%rdx,%rax,1),%r10
    b04f:	4c 8d 45 b0          	lea    -0x50(%rbp),%r8
    b053:	48 8b 7d 80          	mov    -0x80(%rbp),%rdi
    b057:	8b 4d ac             	mov    -0x54(%rbp),%ecx
    b05a:	8b 55 a8             	mov    -0x58(%rbp),%edx
    b05d:	8b 75 9c             	mov    -0x64(%rbp),%esi
    b060:	8b 45 a0             	mov    -0x60(%rbp),%eax
    b063:	4d 89 c1             	mov    %r8,%r9
    b066:	49 89 f8             	mov    %rdi,%r8
    b069:	89 c7                	mov    %eax,%edi
    b06b:	41 ff d2             	call   *%r10
    b06e:	48 8b 45 80          	mov    -0x80(%rbp),%rax
    b072:	48 83 c0 38          	add    $0x38,%rax
    b076:	ff 75 e8             	push   -0x18(%rbp)
    b079:	ff 75 e0             	push   -0x20(%rbp)
    b07c:	ff 75 d8             	push   -0x28(%rbp)
    b07f:	ff 75 d0             	push   -0x30(%rbp)
    b082:	ff 75 c8             	push   -0x38(%rbp)
    b085:	ff 75 c0             	push   -0x40(%rbp)
    b088:	ff 75 b8             	push   -0x48(%rbp)
    b08b:	ff 75 b0             	push   -0x50(%rbp)
    b08e:	48 89 c7             	mov    %rax,%rdi
    b091:	e8 02 65 00 00       	call   11598 <instruction_list__push>
    b096:	48 83 c4 40          	add    $0x40,%rsp
    b09a:	90                   	nop
    b09b:	48 8b 45 f8          	mov    -0x8(%rbp),%rax
    b09f:	64 48 2b 04 25 28 00 	sub    %fs:0x28,%rax
    b0a6:	00 00 
    b0a8:	74 05                	je     b0af <opcode__sbb_0001_10xx+0x135>
    b0aa:	e8 c1 d0 ff ff       	call   8170 <__stack_chk_fail@plt>
    b0af:	c9                   	leave  
    b0b0:	c3                   	ret    

000000000000b0b1 <opcode__cont_sbb_1000_00xx>:
    b0b1:	f3 0f 1e fa          	endbr64 
    b0b5:	55                   	push   %rbp
    b0b6:	48 89 e5             	mov    %rsp,%rbp
    b0b9:	48 83 ec 70          	sub    $0x70,%rsp
    b0bd:	89 f9                	mov    %edi,%ecx
    b0bf:	89 f0                	mov    %esi,%eax
    b0c1:	48 89 55 90          	mov    %rdx,-0x70(%rbp)
    b0c5:	89 ca                	mov    %ecx,%edx
    b0c7:	88 55 9c             	mov    %dl,-0x64(%rbp)
    b0ca:	88 45 98             	mov    %al,-0x68(%rbp)
    b0cd:	64 48 8b 04 25 28 00 	mov    %fs:0x28,%rax
    b0d4:	00 00 
    b0d6:	48 89 45 f8          	mov    %rax,-0x8(%rbp)
    b0da:	31 c0                	xor    %eax,%eax
    b0dc:	48 8b 45 90          	mov    -0x70(%rbp),%rax
    b0e0:	48 89 c7             	mov    %rax,%rdi
    b0e3:	e8 76 62 00 00       	call   1135e <file_reader__read_bytes_so_far>
    b0e8:	8d 50 ff             	lea    -0x1(%rax),%edx
    b0eb:	48 8d 45 b0          	lea    -0x50(%rbp),%rax
    b0ef:	89 d6                	mov    %edx,%esi
    b0f1:	48 89 c7             	mov    %rax,%rdi
    b0f4:	e8 7a 62 00 00       	call   11373 <instruction__create>
    b0f9:	48 8d 45 b0          	lea    -0x50(%rbp),%rax
    b0fd:	48 8d 15 c5 70 00 00 	lea    0x70c5(%rip),%rdx        # 121c9 <_IO_stdin_used+0x1c9>
    b104:	48 89 d6             	mov    %rdx,%rsi
    b107:	48 89 c7             	mov    %rax,%rdi
    b10a:	b8 00 00 00 00       	mov    $0x0,%eax
    b10f:	e8 a6 62 00 00       	call   113ba <instruction__push>
    b114:	0f b6 45 9c          	movzbl -0x64(%rbp),%eax
    b118:	d0 e8                	shr    %al
    b11a:	0f b6 c0             	movzbl %al,%eax
    b11d:	83 e0 01             	and    $0x1,%eax
    b120:	89 45 a0             	mov    %eax,-0x60(%rbp)
    b123:	0f b6 45 9c          	movzbl -0x64(%rbp),%eax
    b127:	83 e0 01             	and    $0x1,%eax
    b12a:	89 45 a4             	mov    %eax,-0x5c(%rbp)
    b12d:	0f b6 45 98          	movzbl -0x68(%rbp),%eax
    b131:	c0 e8 06             	shr    $0x6,%al
    b134:	0f b6 c0             	movzbl %al,%eax
    b137:	83 e0 03             	and    $0x3,%eax
    b13a:	89 45 a8             	mov    %eax,-0x58(%rbp)
    b13d:	0f b6 45 98          	movzbl -0x68(%rbp),%eax
    b141:	83 e0 07             	and    $0x7,%eax
    b144:	89 45 ac             	mov    %eax,-0x54(%rbp)
    b147:	8b 45 a8             	mov    -0x58(%rbp),%eax
    b14a:	48 98                	cltq   
    b14c:	48 8d 14 c5 00 00 00 	lea    0x0(,%rax,8),%rdx
    b153:	00 
    b154:	48 8d 05 25 cb 00 00 	lea    0xcb25(%rip),%rax        # 17c80 <mod_immediate_signed_handlers>
    b15b:	4c 8b 0c 02          	mov    (%rdx,%rax,1),%r9
    b15f:	48 8d 7d b0          	lea    -0x50(%rbp),%rdi
    b163:	48 8b 4d 90          	mov    -0x70(%rbp),%rcx
    b167:	8b 55 ac             	mov    -0x54(%rbp),%edx
    b16a:	8b 75 a4             	mov    -0x5c(%rbp),%esi
    b16d:	8b 45 a0             	mov    -0x60(%rbp),%eax
    b170:	49 89 f8             	mov    %rdi,%r8
    b173:	89 c7                	mov    %eax,%edi
    b175:	41 ff d1             	call   *%r9
    b178:	48 8b 45 90          	mov    -0x70(%rbp),%rax
    b17c:	48 83 c0 38          	add    $0x38,%rax
    b180:	ff 75 e8             	push   -0x18(%rbp)
    b183:	ff 75 e0             	push   -0x20(%rbp)
    b186:	ff 75 d8             	push   -0x28(%rbp)
    b189:	ff 75 d0             	push   -0x30(%rbp)
    b18c:	ff 75 c8             	push   -0x38(%rbp)
    b18f:	ff 75 c0             	push   -0x40(%rbp)
    b192:	ff 75 b8             	push   -0x48(%rbp)
    b195:	ff 75 b0             	push   -0x50(%rbp)
    b198:	48 89 c7             	mov    %rax,%rdi
    b19b:	e8 f8 63 00 00       	call   11598 <instruction_list__push>
    b1a0:	48 83 c4 40          	add    $0x40,%rsp
    b1a4:	90                   	nop
    b1a5:	48 8b 45 f8          	mov    -0x8(%rbp),%rax
    b1a9:	64 48 2b 04 25 28 00 	sub    %fs:0x28,%rax
    b1b0:	00 00 
    b1b2:	74 05                	je     b1b9 <opcode__cont_sbb_1000_00xx+0x108>
    b1b4:	e8 b7 cf ff ff       	call   8170 <__stack_chk_fail@plt>
    b1b9:	c9                   	leave  
    b1ba:	c3                   	ret    

000000000000b1bb <opcode__sbb_0001_110x>:
    b1bb:	f3 0f 1e fa          	endbr64 
    b1bf:	55                   	push   %rbp
    b1c0:	48 89 e5             	mov    %rsp,%rbp
    b1c3:	53                   	push   %rbx
    b1c4:	48 83 ec 78          	sub    $0x78,%rsp
    b1c8:	89 f8                	mov    %edi,%eax
    b1ca:	48 89 75 80          	mov    %rsi,-0x80(%rbp)
    b1ce:	88 45 8c             	mov    %al,-0x74(%rbp)
    b1d1:	64 48 8b 04 25 28 00 	mov    %fs:0x28,%rax
    b1d8:	00 00 
    b1da:	48 89 45 e8          	mov    %rax,-0x18(%rbp)
    b1de:	31 c0                	xor    %eax,%eax
    b1e0:	48 8b 45 80          	mov    -0x80(%rbp),%rax
    b1e4:	48 89 c7             	mov    %rax,%rdi
    b1e7:	e8 72 61 00 00       	call   1135e <file_reader__read_bytes_so_far>
    b1ec:	8d 50 ff             	lea    -0x1(%rax),%edx
    b1ef:	48 8d 45 a0          	lea    -0x60(%rbp),%rax
    b1f3:	89 d6                	mov    %edx,%esi
    b1f5:	48 89 c7             	mov    %rax,%rdi
    b1f8:	e8 76 61 00 00       	call   11373 <instruction__create>
    b1fd:	48 8d 45 a0          	lea    -0x60(%rbp),%rax
    b201:	48 8d 15 c1 6f 00 00 	lea    0x6fc1(%rip),%rdx        # 121c9 <_IO_stdin_used+0x1c9>
    b208:	48 89 d6             	mov    %rdx,%rsi
    b20b:	48 89 c7             	mov    %rax,%rdi
    b20e:	b8 00 00 00 00       	mov    $0x0,%eax
    b213:	e8 a2 61 00 00       	call   113ba <instruction__push>
    b218:	0f b6 45 8c          	movzbl -0x74(%rbp),%eax
    b21c:	83 e0 01             	and    $0x1,%eax
    b21f:	89 45 9c             	mov    %eax,-0x64(%rbp)
    b222:	66 c7 45 9a 00 00    	movw   $0x0,-0x66(%rbp)
    b228:	8b 45 9c             	mov    -0x64(%rbp),%eax
    b22b:	48 98                	cltq   
    b22d:	48 8d 14 c5 00 00 00 	lea    0x0(,%rax,8),%rdx
    b234:	00 
    b235:	48 8d 05 a4 c9 00 00 	lea    0xc9a4(%rip),%rax        # 17be0 <file_reader__read_by_type>
    b23c:	4c 8b 04 02          	mov    (%rdx,%rax,1),%r8
    b240:	48 8b 45 80          	mov    -0x80(%rbp),%rax
    b244:	48 8b 50 20          	mov    0x20(%rax),%rdx
    b248:	48 8b 45 80          	mov    -0x80(%rbp),%rax
    b24c:	48 8d 4d 9a          	lea    -0x66(%rbp),%rcx
    b250:	48 89 ce             	mov    %rcx,%rsi
    b253:	48 89 c7             	mov    %rax,%rdi
    b256:	41 ff d0             	call   *%r8
    b259:	0f b7 45 9a          	movzwl -0x66(%rbp),%eax
    b25d:	0f b7 d8             	movzwl %ax,%ebx
    b260:	8b 45 9c             	mov    -0x64(%rbp),%eax
    b263:	89 c6                	mov    %eax,%esi
    b265:	bf 00 00 00 00       	mov    $0x0,%edi
    b26a:	e8 6a d6 ff ff       	call   88d9 <reg_to_word>
    b26f:	48 89 c2             	mov    %rax,%rdx
    b272:	48 8d 45 a0          	lea    -0x60(%rbp),%rax
    b276:	89 d9                	mov    %ebx,%ecx
    b278:	48 8d 35 74 6e 00 00 	lea    0x6e74(%rip),%rsi        # 120f3 <_IO_stdin_used+0xf3>
    b27f:	48 89 c7             	mov    %rax,%rdi
    b282:	b8 00 00 00 00       	mov    $0x0,%eax
    b287:	e8 2e 61 00 00       	call   113ba <instruction__push>
    b28c:	48 8b 45 80          	mov    -0x80(%rbp),%rax
    b290:	48 83 c0 38          	add    $0x38,%rax
    b294:	ff 75 d8             	push   -0x28(%rbp)
    b297:	ff 75 d0             	push   -0x30(%rbp)
    b29a:	ff 75 c8             	push   -0x38(%rbp)
    b29d:	ff 75 c0             	push   -0x40(%rbp)
    b2a0:	ff 75 b8             	push   -0x48(%rbp)
    b2a3:	ff 75 b0             	push   -0x50(%rbp)
    b2a6:	ff 75 a8             	push   -0x58(%rbp)
    b2a9:	ff 75 a0             	push   -0x60(%rbp)
    b2ac:	48 89 c7             	mov    %rax,%rdi
    b2af:	e8 e4 62 00 00       	call   11598 <instruction_list__push>
    b2b4:	48 83 c4 40          	add    $0x40,%rsp
    b2b8:	90                   	nop
    b2b9:	48 8b 45 e8          	mov    -0x18(%rbp),%rax
    b2bd:	64 48 2b 04 25 28 00 	sub    %fs:0x28,%rax
    b2c4:	00 00 
    b2c6:	74 05                	je     b2cd <opcode__sbb_0001_110x+0x112>
    b2c8:	e8 a3 ce ff ff       	call   8170 <__stack_chk_fail@plt>
    b2cd:	48 8b 5d f8          	mov    -0x8(%rbp),%rbx
    b2d1:	c9                   	leave  
    b2d2:	c3                   	ret    

000000000000b2d3 <opcode__cont_dec_1111_111x>:
    b2d3:	f3 0f 1e fa          	endbr64 
    b2d7:	55                   	push   %rbp
    b2d8:	48 89 e5             	mov    %rsp,%rbp
    b2db:	48 83 ec 70          	sub    $0x70,%rsp
    b2df:	89 f9                	mov    %edi,%ecx
    b2e1:	89 f0                	mov    %esi,%eax
    b2e3:	48 89 55 90          	mov    %rdx,-0x70(%rbp)
    b2e7:	89 ca                	mov    %ecx,%edx
    b2e9:	88 55 9c             	mov    %dl,-0x64(%rbp)
    b2ec:	88 45 98             	mov    %al,-0x68(%rbp)
    b2ef:	64 48 8b 04 25 28 00 	mov    %fs:0x28,%rax
    b2f6:	00 00 
    b2f8:	48 89 45 f8          	mov    %rax,-0x8(%rbp)
    b2fc:	31 c0                	xor    %eax,%eax
    b2fe:	48 8b 45 90          	mov    -0x70(%rbp),%rax
    b302:	48 89 c7             	mov    %rax,%rdi
    b305:	e8 54 60 00 00       	call   1135e <file_reader__read_bytes_so_far>
    b30a:	8d 50 ff             	lea    -0x1(%rax),%edx
    b30d:	48 8d 45 b0          	lea    -0x50(%rbp),%rax
    b311:	89 d6                	mov    %edx,%esi
    b313:	48 89 c7             	mov    %rax,%rdi
    b316:	e8 58 60 00 00       	call   11373 <instruction__create>
    b31b:	48 8d 45 b0          	lea    -0x50(%rbp),%rax
    b31f:	48 8d 15 a8 6e 00 00 	lea    0x6ea8(%rip),%rdx        # 121ce <_IO_stdin_used+0x1ce>
    b326:	48 89 d6             	mov    %rdx,%rsi
    b329:	48 89 c7             	mov    %rax,%rdi
    b32c:	b8 00 00 00 00       	mov    $0x0,%eax
    b331:	e8 84 60 00 00       	call   113ba <instruction__push>
    b336:	0f b6 45 9c          	movzbl -0x64(%rbp),%eax
    b33a:	83 e0 01             	and    $0x1,%eax
    b33d:	89 45 a4             	mov    %eax,-0x5c(%rbp)
    b340:	0f b6 45 98          	movzbl -0x68(%rbp),%eax
    b344:	c0 e8 06             	shr    $0x6,%al
    b347:	0f b6 c0             	movzbl %al,%eax
    b34a:	83 e0 03             	and    $0x3,%eax
    b34d:	89 45 a8             	mov    %eax,-0x58(%rbp)
    b350:	0f b6 45 98          	movzbl -0x68(%rbp),%eax
    b354:	83 e0 07             	and    $0x7,%eax
    b357:	89 45 ac             	mov    %eax,-0x54(%rbp)
    b35a:	8b 45 a8             	mov    -0x58(%rbp),%eax
    b35d:	48 98                	cltq   
    b35f:	48 8d 14 c5 00 00 00 	lea    0x0(,%rax,8),%rdx
    b366:	00 
    b367:	48 8d 05 32 c9 00 00 	lea    0xc932(%rip),%rax        # 17ca0 <mod_source_only_handlers>
    b36e:	4c 8b 04 02          	mov    (%rdx,%rax,1),%r8
    b372:	48 8d 4d b0          	lea    -0x50(%rbp),%rcx
    b376:	48 8b 55 90          	mov    -0x70(%rbp),%rdx
    b37a:	8b 75 ac             	mov    -0x54(%rbp),%esi
    b37d:	8b 45 a4             	mov    -0x5c(%rbp),%eax
    b380:	89 c7                	mov    %eax,%edi
    b382:	41 ff d0             	call   *%r8
    b385:	48 8b 45 90          	mov    -0x70(%rbp),%rax
    b389:	48 83 c0 38          	add    $0x38,%rax
    b38d:	ff 75 e8             	push   -0x18(%rbp)
    b390:	ff 75 e0             	push   -0x20(%rbp)
    b393:	ff 75 d8             	push   -0x28(%rbp)
    b396:	ff 75 d0             	push   -0x30(%rbp)
    b399:	ff 75 c8             	push   -0x38(%rbp)
    b39c:	ff 75 c0             	push   -0x40(%rbp)
    b39f:	ff 75 b8             	push   -0x48(%rbp)
    b3a2:	ff 75 b0             	push   -0x50(%rbp)
    b3a5:	48 89 c7             	mov    %rax,%rdi
    b3a8:	e8 eb 61 00 00       	call   11598 <instruction_list__push>
    b3ad:	48 83 c4 40          	add    $0x40,%rsp
    b3b1:	90                   	nop
    b3b2:	48 8b 45 f8          	mov    -0x8(%rbp),%rax
    b3b6:	64 48 2b 04 25 28 00 	sub    %fs:0x28,%rax
    b3bd:	00 00 
    b3bf:	74 05                	je     b3c6 <opcode__cont_dec_1111_111x+0xf3>
    b3c1:	e8 aa cd ff ff       	call   8170 <__stack_chk_fail@plt>
    b3c6:	c9                   	leave  
    b3c7:	c3                   	ret    

000000000000b3c8 <opcode__dec_0100_1xxx>:
    b3c8:	f3 0f 1e fa          	endbr64 
    b3cc:	55                   	push   %rbp
    b3cd:	48 89 e5             	mov    %rsp,%rbp
    b3d0:	48 83 ec 70          	sub    $0x70,%rsp
    b3d4:	89 f8                	mov    %edi,%eax
    b3d6:	48 89 75 90          	mov    %rsi,-0x70(%rbp)
    b3da:	88 45 9c             	mov    %al,-0x64(%rbp)
    b3dd:	64 48 8b 04 25 28 00 	mov    %fs:0x28,%rax
    b3e4:	00 00 
    b3e6:	48 89 45 f8          	mov    %rax,-0x8(%rbp)
    b3ea:	31 c0                	xor    %eax,%eax
    b3ec:	48 8b 45 90          	mov    -0x70(%rbp),%rax
    b3f0:	48 89 c7             	mov    %rax,%rdi
    b3f3:	e8 66 5f 00 00       	call   1135e <file_reader__read_bytes_so_far>
    b3f8:	8d 50 ff             	lea    -0x1(%rax),%edx
    b3fb:	48 8d 45 b0          	lea    -0x50(%rbp),%rax
    b3ff:	89 d6                	mov    %edx,%esi
    b401:	48 89 c7             	mov    %rax,%rdi
    b404:	e8 6a 5f 00 00       	call   11373 <instruction__create>
    b409:	48 8d 45 b0          	lea    -0x50(%rbp),%rax
    b40d:	48 8d 15 ba 6d 00 00 	lea    0x6dba(%rip),%rdx        # 121ce <_IO_stdin_used+0x1ce>
    b414:	48 89 d6             	mov    %rdx,%rsi
    b417:	48 89 c7             	mov    %rax,%rdi
    b41a:	b8 00 00 00 00       	mov    $0x0,%eax
    b41f:	e8 96 5f 00 00       	call   113ba <instruction__push>
    b424:	0f b6 45 9c          	movzbl -0x64(%rbp),%eax
    b428:	83 e0 07             	and    $0x7,%eax
    b42b:	89 45 ac             	mov    %eax,-0x54(%rbp)
    b42e:	8b 45 ac             	mov    -0x54(%rbp),%eax
    b431:	be 01 00 00 00       	mov    $0x1,%esi
    b436:	89 c7                	mov    %eax,%edi
    b438:	e8 9c d4 ff ff       	call   88d9 <reg_to_word>
    b43d:	48 89 c2             	mov    %rax,%rdx
    b440:	48 8d 45 b0          	lea    -0x50(%rbp),%rax
    b444:	48 8d 0d 11 6d 00 00 	lea    0x6d11(%rip),%rcx        # 1215c <_IO_stdin_used+0x15c>
    b44b:	48 89 ce             	mov    %rcx,%rsi
    b44e:	48 89 c7             	mov    %rax,%rdi
    b451:	b8 00 00 00 00       	mov    $0x0,%eax
    b456:	e8 5f 5f 00 00       	call   113ba <instruction__push>
    b45b:	48 8b 45 90          	mov    -0x70(%rbp),%rax
    b45f:	48 83 c0 38          	add    $0x38,%rax
    b463:	ff 75 e8             	push   -0x18(%rbp)
    b466:	ff 75 e0             	push   -0x20(%rbp)
    b469:	ff 75 d8             	push   -0x28(%rbp)
    b46c:	ff 75 d0             	push   -0x30(%rbp)
    b46f:	ff 75 c8             	push   -0x38(%rbp)
    b472:	ff 75 c0             	push   -0x40(%rbp)
    b475:	ff 75 b8             	push   -0x48(%rbp)
    b478:	ff 75 b0             	push   -0x50(%rbp)
    b47b:	48 89 c7             	mov    %rax,%rdi
    b47e:	e8 15 61 00 00       	call   11598 <instruction_list__push>
    b483:	48 83 c4 40          	add    $0x40,%rsp
    b487:	90                   	nop
    b488:	48 8b 45 f8          	mov    -0x8(%rbp),%rax
    b48c:	64 48 2b 04 25 28 00 	sub    %fs:0x28,%rax
    b493:	00 00 
    b495:	74 05                	je     b49c <opcode__dec_0100_1xxx+0xd4>
    b497:	e8 d4 cc ff ff       	call   8170 <__stack_chk_fail@plt>
    b49c:	c9                   	leave  
    b49d:	c3                   	ret    

000000000000b49e <opcode__cont_neg>:
    b49e:	f3 0f 1e fa          	endbr64 
    b4a2:	55                   	push   %rbp
    b4a3:	48 89 e5             	mov    %rsp,%rbp
    b4a6:	48 83 ec 70          	sub    $0x70,%rsp
    b4aa:	89 f9                	mov    %edi,%ecx
    b4ac:	89 f0                	mov    %esi,%eax
    b4ae:	48 89 55 90          	mov    %rdx,-0x70(%rbp)
    b4b2:	89 ca                	mov    %ecx,%edx
    b4b4:	88 55 9c             	mov    %dl,-0x64(%rbp)
    b4b7:	88 45 98             	mov    %al,-0x68(%rbp)
    b4ba:	64 48 8b 04 25 28 00 	mov    %fs:0x28,%rax
    b4c1:	00 00 
    b4c3:	48 89 45 f8          	mov    %rax,-0x8(%rbp)
    b4c7:	31 c0                	xor    %eax,%eax
    b4c9:	48 8b 45 90          	mov    -0x70(%rbp),%rax
    b4cd:	48 89 c7             	mov    %rax,%rdi
    b4d0:	e8 89 5e 00 00       	call   1135e <file_reader__read_bytes_so_far>
    b4d5:	8d 50 ff             	lea    -0x1(%rax),%edx
    b4d8:	48 8d 45 b0          	lea    -0x50(%rbp),%rax
    b4dc:	89 d6                	mov    %edx,%esi
    b4de:	48 89 c7             	mov    %rax,%rdi
    b4e1:	e8 8d 5e 00 00       	call   11373 <instruction__create>
    b4e6:	48 8d 45 b0          	lea    -0x50(%rbp),%rax
    b4ea:	48 8d 15 e2 6c 00 00 	lea    0x6ce2(%rip),%rdx        # 121d3 <_IO_stdin_used+0x1d3>
    b4f1:	48 89 d6             	mov    %rdx,%rsi
    b4f4:	48 89 c7             	mov    %rax,%rdi
    b4f7:	b8 00 00 00 00       	mov    $0x0,%eax
    b4fc:	e8 b9 5e 00 00       	call   113ba <instruction__push>
    b501:	0f b6 45 9c          	movzbl -0x64(%rbp),%eax
    b505:	83 e0 01             	and    $0x1,%eax
    b508:	89 45 a4             	mov    %eax,-0x5c(%rbp)
    b50b:	0f b6 45 98          	movzbl -0x68(%rbp),%eax
    b50f:	c0 e8 06             	shr    $0x6,%al
    b512:	0f b6 c0             	movzbl %al,%eax
    b515:	83 e0 03             	and    $0x3,%eax
    b518:	89 45 a8             	mov    %eax,-0x58(%rbp)
    b51b:	0f b6 45 98          	movzbl -0x68(%rbp),%eax
    b51f:	83 e0 07             	and    $0x7,%eax
    b522:	89 45 ac             	mov    %eax,-0x54(%rbp)
    b525:	8b 45 a8             	mov    -0x58(%rbp),%eax
    b528:	48 98                	cltq   
    b52a:	48 8d 14 c5 00 00 00 	lea    0x0(,%rax,8),%rdx
    b531:	00 
    b532:	48 8d 05 67 c7 00 00 	lea    0xc767(%rip),%rax        # 17ca0 <mod_source_only_handlers>
    b539:	4c 8b 04 02          	mov    (%rdx,%rax,1),%r8
    b53d:	48 8d 4d b0          	lea    -0x50(%rbp),%rcx
    b541:	48 8b 55 90          	mov    -0x70(%rbp),%rdx
    b545:	8b 75 ac             	mov    -0x54(%rbp),%esi
    b548:	8b 45 a4             	mov    -0x5c(%rbp),%eax
    b54b:	89 c7                	mov    %eax,%edi
    b54d:	41 ff d0             	call   *%r8
    b550:	48 8b 45 90          	mov    -0x70(%rbp),%rax
    b554:	48 83 c0 38          	add    $0x38,%rax
    b558:	ff 75 e8             	push   -0x18(%rbp)
    b55b:	ff 75 e0             	push   -0x20(%rbp)
    b55e:	ff 75 d8             	push   -0x28(%rbp)
    b561:	ff 75 d0             	push   -0x30(%rbp)
    b564:	ff 75 c8             	push   -0x38(%rbp)
    b567:	ff 75 c0             	push   -0x40(%rbp)
    b56a:	ff 75 b8             	push   -0x48(%rbp)
    b56d:	ff 75 b0             	push   -0x50(%rbp)
    b570:	48 89 c7             	mov    %rax,%rdi
    b573:	e8 20 60 00 00       	call   11598 <instruction_list__push>
    b578:	48 83 c4 40          	add    $0x40,%rsp
    b57c:	90                   	nop
    b57d:	48 8b 45 f8          	mov    -0x8(%rbp),%rax
    b581:	64 48 2b 04 25 28 00 	sub    %fs:0x28,%rax
    b588:	00 00 
    b58a:	74 05                	je     b591 <opcode__cont_neg+0xf3>
    b58c:	e8 df cb ff ff       	call   8170 <__stack_chk_fail@plt>
    b591:	c9                   	leave  
    b592:	c3                   	ret    

000000000000b593 <opcode__cmp_0011_10xx>:
    b593:	f3 0f 1e fa          	endbr64 
    b597:	55                   	push   %rbp
    b598:	48 89 e5             	mov    %rsp,%rbp
    b59b:	48 83 c4 80          	add    $0xffffffffffffff80,%rsp
    b59f:	89 f8                	mov    %edi,%eax
    b5a1:	48 89 75 80          	mov    %rsi,-0x80(%rbp)
    b5a5:	88 45 8c             	mov    %al,-0x74(%rbp)
    b5a8:	64 48 8b 04 25 28 00 	mov    %fs:0x28,%rax
    b5af:	00 00 
    b5b1:	48 89 45 f8          	mov    %rax,-0x8(%rbp)
    b5b5:	31 c0                	xor    %eax,%eax
    b5b7:	48 8b 45 80          	mov    -0x80(%rbp),%rax
    b5bb:	48 89 c7             	mov    %rax,%rdi
    b5be:	e8 9b 5d 00 00       	call   1135e <file_reader__read_bytes_so_far>
    b5c3:	8d 50 ff             	lea    -0x1(%rax),%edx
    b5c6:	48 8d 45 b0          	lea    -0x50(%rbp),%rax
    b5ca:	89 d6                	mov    %edx,%esi
    b5cc:	48 89 c7             	mov    %rax,%rdi
    b5cf:	e8 9f 5d 00 00       	call   11373 <instruction__create>
    b5d4:	48 8d 45 b0          	lea    -0x50(%rbp),%rax
    b5d8:	48 8d 15 f9 6b 00 00 	lea    0x6bf9(%rip),%rdx        # 121d8 <_IO_stdin_used+0x1d8>
    b5df:	48 89 d6             	mov    %rdx,%rsi
    b5e2:	48 89 c7             	mov    %rax,%rdi
    b5e5:	b8 00 00 00 00       	mov    $0x0,%eax
    b5ea:	e8 cb 5d 00 00       	call   113ba <instruction__push>
    b5ef:	0f b6 45 8c          	movzbl -0x74(%rbp),%eax
    b5f3:	d0 e8                	shr    %al
    b5f5:	0f b6 c0             	movzbl %al,%eax
    b5f8:	83 e0 01             	and    $0x1,%eax
    b5fb:	89 45 9c             	mov    %eax,-0x64(%rbp)
    b5fe:	0f b6 45 8c          	movzbl -0x74(%rbp),%eax
    b602:	83 e0 01             	and    $0x1,%eax
    b605:	89 45 a0             	mov    %eax,-0x60(%rbp)
    b608:	48 8b 45 80          	mov    -0x80(%rbp),%rax
    b60c:	48 8b 50 20          	mov    0x20(%rax),%rdx
    b610:	48 8b 45 80          	mov    -0x80(%rbp),%rax
    b614:	48 8d 4d 9b          	lea    -0x65(%rbp),%rcx
    b618:	48 89 ce             	mov    %rcx,%rsi
    b61b:	48 89 c7             	mov    %rax,%rdi
    b61e:	e8 4a 5c 00 00       	call   1126d <file_reader__read_byte>
    b623:	0f b6 45 9b          	movzbl -0x65(%rbp),%eax
    b627:	c0 e8 06             	shr    $0x6,%al
    b62a:	0f b6 c0             	movzbl %al,%eax
    b62d:	83 e0 03             	and    $0x3,%eax
    b630:	89 45 a4             	mov    %eax,-0x5c(%rbp)
    b633:	0f b6 45 9b          	movzbl -0x65(%rbp),%eax
    b637:	c0 e8 03             	shr    $0x3,%al
    b63a:	0f b6 c0             	movzbl %al,%eax
    b63d:	83 e0 07             	and    $0x7,%eax
    b640:	89 45 a8             	mov    %eax,-0x58(%rbp)
    b643:	0f b6 45 9b          	movzbl -0x65(%rbp),%eax
    b647:	0f b6 c0             	movzbl %al,%eax
    b64a:	83 e0 07             	and    $0x7,%eax
    b64d:	89 45 ac             	mov    %eax,-0x54(%rbp)
    b650:	8b 45 a4             	mov    -0x5c(%rbp),%eax
    b653:	48 98                	cltq   
    b655:	48 8d 14 c5 00 00 00 	lea    0x0(,%rax,8),%rdx
    b65c:	00 
    b65d:	48 8d 05 dc c5 00 00 	lea    0xc5dc(%rip),%rax        # 17c40 <mod_handlers>
    b664:	4c 8b 14 02          	mov    (%rdx,%rax,1),%r10
    b668:	4c 8d 45 b0          	lea    -0x50(%rbp),%r8
    b66c:	48 8b 7d 80          	mov    -0x80(%rbp),%rdi
    b670:	8b 4d ac             	mov    -0x54(%rbp),%ecx
    b673:	8b 55 a8             	mov    -0x58(%rbp),%edx
    b676:	8b 75 9c             	mov    -0x64(%rbp),%esi
    b679:	8b 45 a0             	mov    -0x60(%rbp),%eax
    b67c:	4d 89 c1             	mov    %r8,%r9
    b67f:	49 89 f8             	mov    %rdi,%r8
    b682:	89 c7                	mov    %eax,%edi
    b684:	41 ff d2             	call   *%r10
    b687:	48 8b 45 80          	mov    -0x80(%rbp),%rax
    b68b:	48 83 c0 38          	add    $0x38,%rax
    b68f:	ff 75 e8             	push   -0x18(%rbp)
    b692:	ff 75 e0             	push   -0x20(%rbp)
    b695:	ff 75 d8             	push   -0x28(%rbp)
    b698:	ff 75 d0             	push   -0x30(%rbp)
    b69b:	ff 75 c8             	push   -0x38(%rbp)
    b69e:	ff 75 c0             	push   -0x40(%rbp)
    b6a1:	ff 75 b8             	push   -0x48(%rbp)
    b6a4:	ff 75 b0             	push   -0x50(%rbp)
    b6a7:	48 89 c7             	mov    %rax,%rdi
    b6aa:	e8 e9 5e 00 00       	call   11598 <instruction_list__push>
    b6af:	48 83 c4 40          	add    $0x40,%rsp
    b6b3:	90                   	nop
    b6b4:	48 8b 45 f8          	mov    -0x8(%rbp),%rax
    b6b8:	64 48 2b 04 25 28 00 	sub    %fs:0x28,%rax
    b6bf:	00 00 
    b6c1:	74 05                	je     b6c8 <opcode__cmp_0011_10xx+0x135>
    b6c3:	e8 a8 ca ff ff       	call   8170 <__stack_chk_fail@plt>
    b6c8:	c9                   	leave  
    b6c9:	c3                   	ret    

000000000000b6ca <opcode__cont_cmp_1000_00xx>:
    b6ca:	f3 0f 1e fa          	endbr64 
    b6ce:	55                   	push   %rbp
    b6cf:	48 89 e5             	mov    %rsp,%rbp
    b6d2:	48 83 ec 70          	sub    $0x70,%rsp
    b6d6:	89 f9                	mov    %edi,%ecx
    b6d8:	89 f0                	mov    %esi,%eax
    b6da:	48 89 55 90          	mov    %rdx,-0x70(%rbp)
    b6de:	89 ca                	mov    %ecx,%edx
    b6e0:	88 55 9c             	mov    %dl,-0x64(%rbp)
    b6e3:	88 45 98             	mov    %al,-0x68(%rbp)
    b6e6:	64 48 8b 04 25 28 00 	mov    %fs:0x28,%rax
    b6ed:	00 00 
    b6ef:	48 89 45 f8          	mov    %rax,-0x8(%rbp)
    b6f3:	31 c0                	xor    %eax,%eax
    b6f5:	48 8b 45 90          	mov    -0x70(%rbp),%rax
    b6f9:	48 89 c7             	mov    %rax,%rdi
    b6fc:	e8 5d 5c 00 00       	call   1135e <file_reader__read_bytes_so_far>
    b701:	8d 50 ff             	lea    -0x1(%rax),%edx
    b704:	48 8d 45 b0          	lea    -0x50(%rbp),%rax
    b708:	89 d6                	mov    %edx,%esi
    b70a:	48 89 c7             	mov    %rax,%rdi
    b70d:	e8 61 5c 00 00       	call   11373 <instruction__create>
    b712:	48 8d 45 b0          	lea    -0x50(%rbp),%rax
    b716:	48 8d 15 bb 6a 00 00 	lea    0x6abb(%rip),%rdx        # 121d8 <_IO_stdin_used+0x1d8>
    b71d:	48 89 d6             	mov    %rdx,%rsi
    b720:	48 89 c7             	mov    %rax,%rdi
    b723:	b8 00 00 00 00       	mov    $0x0,%eax
    b728:	e8 8d 5c 00 00       	call   113ba <instruction__push>
    b72d:	0f b6 45 9c          	movzbl -0x64(%rbp),%eax
    b731:	d0 e8                	shr    %al
    b733:	0f b6 c0             	movzbl %al,%eax
    b736:	83 e0 01             	and    $0x1,%eax
    b739:	89 45 a0             	mov    %eax,-0x60(%rbp)
    b73c:	0f b6 45 9c          	movzbl -0x64(%rbp),%eax
    b740:	83 e0 01             	and    $0x1,%eax
    b743:	89 45 a4             	mov    %eax,-0x5c(%rbp)
    b746:	0f b6 45 98          	movzbl -0x68(%rbp),%eax
    b74a:	c0 e8 06             	shr    $0x6,%al
    b74d:	0f b6 c0             	movzbl %al,%eax
    b750:	83 e0 03             	and    $0x3,%eax
    b753:	89 45 a8             	mov    %eax,-0x58(%rbp)
    b756:	0f b6 45 98          	movzbl -0x68(%rbp),%eax
    b75a:	83 e0 07             	and    $0x7,%eax
    b75d:	89 45 ac             	mov    %eax,-0x54(%rbp)
    b760:	8b 45 a8             	mov    -0x58(%rbp),%eax
    b763:	48 98                	cltq   
    b765:	48 8d 14 c5 00 00 00 	lea    0x0(,%rax,8),%rdx
    b76c:	00 
    b76d:	48 8d 05 0c c5 00 00 	lea    0xc50c(%rip),%rax        # 17c80 <mod_immediate_signed_handlers>
    b774:	4c 8b 0c 02          	mov    (%rdx,%rax,1),%r9
    b778:	48 8d 7d b0          	lea    -0x50(%rbp),%rdi
    b77c:	48 8b 4d 90          	mov    -0x70(%rbp),%rcx
    b780:	8b 55 ac             	mov    -0x54(%rbp),%edx
    b783:	8b 75 a4             	mov    -0x5c(%rbp),%esi
    b786:	8b 45 a0             	mov    -0x60(%rbp),%eax
    b789:	49 89 f8             	mov    %rdi,%r8
    b78c:	89 c7                	mov    %eax,%edi
    b78e:	41 ff d1             	call   *%r9
    b791:	48 8b 45 90          	mov    -0x70(%rbp),%rax
    b795:	48 83 c0 38          	add    $0x38,%rax
    b799:	ff 75 e8             	push   -0x18(%rbp)
    b79c:	ff 75 e0             	push   -0x20(%rbp)
    b79f:	ff 75 d8             	push   -0x28(%rbp)
    b7a2:	ff 75 d0             	push   -0x30(%rbp)
    b7a5:	ff 75 c8             	push   -0x38(%rbp)
    b7a8:	ff 75 c0             	push   -0x40(%rbp)
    b7ab:	ff 75 b8             	push   -0x48(%rbp)
    b7ae:	ff 75 b0             	push   -0x50(%rbp)
    b7b1:	48 89 c7             	mov    %rax,%rdi
    b7b4:	e8 df 5d 00 00       	call   11598 <instruction_list__push>
    b7b9:	48 83 c4 40          	add    $0x40,%rsp
    b7bd:	90                   	nop
    b7be:	48 8b 45 f8          	mov    -0x8(%rbp),%rax
    b7c2:	64 48 2b 04 25 28 00 	sub    %fs:0x28,%rax
    b7c9:	00 00 
    b7cb:	74 05                	je     b7d2 <opcode__cont_cmp_1000_00xx+0x108>
    b7cd:	e8 9e c9 ff ff       	call   8170 <__stack_chk_fail@plt>
    b7d2:	c9                   	leave  
    b7d3:	c3                   	ret    

000000000000b7d4 <opcode__cmp_0011_110x>:
    b7d4:	f3 0f 1e fa          	endbr64 
    b7d8:	55                   	push   %rbp
    b7d9:	48 89 e5             	mov    %rsp,%rbp
    b7dc:	53                   	push   %rbx
    b7dd:	48 83 ec 78          	sub    $0x78,%rsp
    b7e1:	89 f8                	mov    %edi,%eax
    b7e3:	48 89 75 80          	mov    %rsi,-0x80(%rbp)
    b7e7:	88 45 8c             	mov    %al,-0x74(%rbp)
    b7ea:	64 48 8b 04 25 28 00 	mov    %fs:0x28,%rax
    b7f1:	00 00 
    b7f3:	48 89 45 e8          	mov    %rax,-0x18(%rbp)
    b7f7:	31 c0                	xor    %eax,%eax
    b7f9:	48 8b 45 80          	mov    -0x80(%rbp),%rax
    b7fd:	48 89 c7             	mov    %rax,%rdi
    b800:	e8 59 5b 00 00       	call   1135e <file_reader__read_bytes_so_far>
    b805:	8d 50 ff             	lea    -0x1(%rax),%edx
    b808:	48 8d 45 a0          	lea    -0x60(%rbp),%rax
    b80c:	89 d6                	mov    %edx,%esi
    b80e:	48 89 c7             	mov    %rax,%rdi
    b811:	e8 5d 5b 00 00       	call   11373 <instruction__create>
    b816:	48 8d 45 a0          	lea    -0x60(%rbp),%rax
    b81a:	48 8d 15 b7 69 00 00 	lea    0x69b7(%rip),%rdx        # 121d8 <_IO_stdin_used+0x1d8>
    b821:	48 89 d6             	mov    %rdx,%rsi
    b824:	48 89 c7             	mov    %rax,%rdi
    b827:	b8 00 00 00 00       	mov    $0x0,%eax
    b82c:	e8 89 5b 00 00       	call   113ba <instruction__push>
    b831:	0f b6 45 8c          	movzbl -0x74(%rbp),%eax
    b835:	83 e0 01             	and    $0x1,%eax
    b838:	89 45 9c             	mov    %eax,-0x64(%rbp)
    b83b:	66 c7 45 9a 00 00    	movw   $0x0,-0x66(%rbp)
    b841:	8b 45 9c             	mov    -0x64(%rbp),%eax
    b844:	48 98                	cltq   
    b846:	48 8d 14 c5 00 00 00 	lea    0x0(,%rax,8),%rdx
    b84d:	00 
    b84e:	48 8d 05 8b c3 00 00 	lea    0xc38b(%rip),%rax        # 17be0 <file_reader__read_by_type>
    b855:	4c 8b 04 02          	mov    (%rdx,%rax,1),%r8
    b859:	48 8b 45 80          	mov    -0x80(%rbp),%rax
    b85d:	48 8b 50 20          	mov    0x20(%rax),%rdx
    b861:	48 8b 45 80          	mov    -0x80(%rbp),%rax
    b865:	48 8d 4d 9a          	lea    -0x66(%rbp),%rcx
    b869:	48 89 ce             	mov    %rcx,%rsi
    b86c:	48 89 c7             	mov    %rax,%rdi
    b86f:	41 ff d0             	call   *%r8
    b872:	0f b7 45 9a          	movzwl -0x66(%rbp),%eax
    b876:	0f b7 d8             	movzwl %ax,%ebx
    b879:	8b 45 9c             	mov    -0x64(%rbp),%eax
    b87c:	89 c6                	mov    %eax,%esi
    b87e:	bf 00 00 00 00       	mov    $0x0,%edi
    b883:	e8 51 d0 ff ff       	call   88d9 <reg_to_word>
    b888:	48 89 c2             	mov    %rax,%rdx
    b88b:	48 8d 45 a0          	lea    -0x60(%rbp),%rax
    b88f:	89 d9                	mov    %ebx,%ecx
    b891:	48 8d 35 5b 68 00 00 	lea    0x685b(%rip),%rsi        # 120f3 <_IO_stdin_used+0xf3>
    b898:	48 89 c7             	mov    %rax,%rdi
    b89b:	b8 00 00 00 00       	mov    $0x0,%eax
    b8a0:	e8 15 5b 00 00       	call   113ba <instruction__push>
    b8a5:	48 8b 45 80          	mov    -0x80(%rbp),%rax
    b8a9:	48 83 c0 38          	add    $0x38,%rax
    b8ad:	ff 75 d8             	push   -0x28(%rbp)
    b8b0:	ff 75 d0             	push   -0x30(%rbp)
    b8b3:	ff 75 c8             	push   -0x38(%rbp)
    b8b6:	ff 75 c0             	push   -0x40(%rbp)
    b8b9:	ff 75 b8             	push   -0x48(%rbp)
    b8bc:	ff 75 b0             	push   -0x50(%rbp)
    b8bf:	ff 75 a8             	push   -0x58(%rbp)
    b8c2:	ff 75 a0             	push   -0x60(%rbp)
    b8c5:	48 89 c7             	mov    %rax,%rdi
    b8c8:	e8 cb 5c 00 00       	call   11598 <instruction_list__push>
    b8cd:	48 83 c4 40          	add    $0x40,%rsp
    b8d1:	90                   	nop
    b8d2:	48 8b 45 e8          	mov    -0x18(%rbp),%rax
    b8d6:	64 48 2b 04 25 28 00 	sub    %fs:0x28,%rax
    b8dd:	00 00 
    b8df:	74 05                	je     b8e6 <opcode__cmp_0011_110x+0x112>
    b8e1:	e8 8a c8 ff ff       	call   8170 <__stack_chk_fail@plt>
    b8e6:	48 8b 5d f8          	mov    -0x8(%rbp),%rbx
    b8ea:	c9                   	leave  
    b8eb:	c3                   	ret    

000000000000b8ec <opcode__aas>:
    b8ec:	f3 0f 1e fa          	endbr64 
    b8f0:	55                   	push   %rbp
    b8f1:	48 89 e5             	mov    %rsp,%rbp
    b8f4:	48 83 ec 60          	sub    $0x60,%rsp
    b8f8:	89 f8                	mov    %edi,%eax
    b8fa:	48 89 75 a0          	mov    %rsi,-0x60(%rbp)
    b8fe:	88 45 ac             	mov    %al,-0x54(%rbp)
    b901:	64 48 8b 04 25 28 00 	mov    %fs:0x28,%rax
    b908:	00 00 
    b90a:	48 89 45 f8          	mov    %rax,-0x8(%rbp)
    b90e:	31 c0                	xor    %eax,%eax
    b910:	48 8b 45 a0          	mov    -0x60(%rbp),%rax
    b914:	48 89 c7             	mov    %rax,%rdi
    b917:	e8 42 5a 00 00       	call   1135e <file_reader__read_bytes_so_far>
    b91c:	8d 50 ff             	lea    -0x1(%rax),%edx
    b91f:	48 8d 45 b0          	lea    -0x50(%rbp),%rax
    b923:	89 d6                	mov    %edx,%esi
    b925:	48 89 c7             	mov    %rax,%rdi
    b928:	e8 46 5a 00 00       	call   11373 <instruction__create>
    b92d:	48 8d 45 b0          	lea    -0x50(%rbp),%rax
    b931:	48 8d 15 a5 68 00 00 	lea    0x68a5(%rip),%rdx        # 121dd <_IO_stdin_used+0x1dd>
    b938:	48 89 d6             	mov    %rdx,%rsi
    b93b:	48 89 c7             	mov    %rax,%rdi
    b93e:	b8 00 00 00 00       	mov    $0x0,%eax
    b943:	e8 72 5a 00 00       	call   113ba <instruction__push>
    b948:	48 8b 45 a0          	mov    -0x60(%rbp),%rax
    b94c:	48 83 c0 38          	add    $0x38,%rax
    b950:	ff 75 e8             	push   -0x18(%rbp)
    b953:	ff 75 e0             	push   -0x20(%rbp)
    b956:	ff 75 d8             	push   -0x28(%rbp)
    b959:	ff 75 d0             	push   -0x30(%rbp)
    b95c:	ff 75 c8             	push   -0x38(%rbp)
    b95f:	ff 75 c0             	push   -0x40(%rbp)
    b962:	ff 75 b8             	push   -0x48(%rbp)
    b965:	ff 75 b0             	push   -0x50(%rbp)
    b968:	48 89 c7             	mov    %rax,%rdi
    b96b:	e8 28 5c 00 00       	call   11598 <instruction_list__push>
    b970:	48 83 c4 40          	add    $0x40,%rsp
    b974:	90                   	nop
    b975:	48 8b 45 f8          	mov    -0x8(%rbp),%rax
    b979:	64 48 2b 04 25 28 00 	sub    %fs:0x28,%rax
    b980:	00 00 
    b982:	74 05                	je     b989 <opcode__aas+0x9d>
    b984:	e8 e7 c7 ff ff       	call   8170 <__stack_chk_fail@plt>
    b989:	c9                   	leave  
    b98a:	c3                   	ret    

000000000000b98b <opcode__das>:
    b98b:	f3 0f 1e fa          	endbr64 
    b98f:	55                   	push   %rbp
    b990:	48 89 e5             	mov    %rsp,%rbp
    b993:	48 83 ec 60          	sub    $0x60,%rsp
    b997:	89 f8                	mov    %edi,%eax
    b999:	48 89 75 a0          	mov    %rsi,-0x60(%rbp)
    b99d:	88 45 ac             	mov    %al,-0x54(%rbp)
    b9a0:	64 48 8b 04 25 28 00 	mov    %fs:0x28,%rax
    b9a7:	00 00 
    b9a9:	48 89 45 f8          	mov    %rax,-0x8(%rbp)
    b9ad:	31 c0                	xor    %eax,%eax
    b9af:	48 8b 45 a0          	mov    -0x60(%rbp),%rax
    b9b3:	48 89 c7             	mov    %rax,%rdi
    b9b6:	e8 a3 59 00 00       	call   1135e <file_reader__read_bytes_so_far>
    b9bb:	8d 50 ff             	lea    -0x1(%rax),%edx
    b9be:	48 8d 45 b0          	lea    -0x50(%rbp),%rax
    b9c2:	89 d6                	mov    %edx,%esi
    b9c4:	48 89 c7             	mov    %rax,%rdi
    b9c7:	e8 a7 59 00 00       	call   11373 <instruction__create>
    b9cc:	48 8d 45 b0          	lea    -0x50(%rbp),%rax
    b9d0:	48 8d 15 0a 68 00 00 	lea    0x680a(%rip),%rdx        # 121e1 <_IO_stdin_used+0x1e1>
    b9d7:	48 89 d6             	mov    %rdx,%rsi
    b9da:	48 89 c7             	mov    %rax,%rdi
    b9dd:	b8 00 00 00 00       	mov    $0x0,%eax
    b9e2:	e8 d3 59 00 00       	call   113ba <instruction__push>
    b9e7:	48 8b 45 a0          	mov    -0x60(%rbp),%rax
    b9eb:	48 83 c0 38          	add    $0x38,%rax
    b9ef:	ff 75 e8             	push   -0x18(%rbp)
    b9f2:	ff 75 e0             	push   -0x20(%rbp)
    b9f5:	ff 75 d8             	push   -0x28(%rbp)
    b9f8:	ff 75 d0             	push   -0x30(%rbp)
    b9fb:	ff 75 c8             	push   -0x38(%rbp)
    b9fe:	ff 75 c0             	push   -0x40(%rbp)
    ba01:	ff 75 b8             	push   -0x48(%rbp)
    ba04:	ff 75 b0             	push   -0x50(%rbp)
    ba07:	48 89 c7             	mov    %rax,%rdi
    ba0a:	e8 89 5b 00 00       	call   11598 <instruction_list__push>
    ba0f:	48 83 c4 40          	add    $0x40,%rsp
    ba13:	90                   	nop
    ba14:	48 8b 45 f8          	mov    -0x8(%rbp),%rax
    ba18:	64 48 2b 04 25 28 00 	sub    %fs:0x28,%rax
    ba1f:	00 00 
    ba21:	74 05                	je     ba28 <opcode__das+0x9d>
    ba23:	e8 48 c7 ff ff       	call   8170 <__stack_chk_fail@plt>
    ba28:	c9                   	leave  
    ba29:	c3                   	ret    

000000000000ba2a <opcode__cont_mul>:
    ba2a:	f3 0f 1e fa          	endbr64 
    ba2e:	55                   	push   %rbp
    ba2f:	48 89 e5             	mov    %rsp,%rbp
    ba32:	48 83 ec 70          	sub    $0x70,%rsp
    ba36:	89 f9                	mov    %edi,%ecx
    ba38:	89 f0                	mov    %esi,%eax
    ba3a:	48 89 55 90          	mov    %rdx,-0x70(%rbp)
    ba3e:	89 ca                	mov    %ecx,%edx
    ba40:	88 55 9c             	mov    %dl,-0x64(%rbp)
    ba43:	88 45 98             	mov    %al,-0x68(%rbp)
    ba46:	64 48 8b 04 25 28 00 	mov    %fs:0x28,%rax
    ba4d:	00 00 
    ba4f:	48 89 45 f8          	mov    %rax,-0x8(%rbp)
    ba53:	31 c0                	xor    %eax,%eax
    ba55:	48 8b 45 90          	mov    -0x70(%rbp),%rax
    ba59:	48 89 c7             	mov    %rax,%rdi
    ba5c:	e8 fd 58 00 00       	call   1135e <file_reader__read_bytes_so_far>
    ba61:	8d 50 ff             	lea    -0x1(%rax),%edx
    ba64:	48 8d 45 b0          	lea    -0x50(%rbp),%rax
    ba68:	89 d6                	mov    %edx,%esi
    ba6a:	48 89 c7             	mov    %rax,%rdi
    ba6d:	e8 01 59 00 00       	call   11373 <instruction__create>
    ba72:	48 8d 45 b0          	lea    -0x50(%rbp),%rax
    ba76:	48 8d 15 68 67 00 00 	lea    0x6768(%rip),%rdx        # 121e5 <_IO_stdin_used+0x1e5>
    ba7d:	48 89 d6             	mov    %rdx,%rsi
    ba80:	48 89 c7             	mov    %rax,%rdi
    ba83:	b8 00 00 00 00       	mov    $0x0,%eax
    ba88:	e8 2d 59 00 00       	call   113ba <instruction__push>
    ba8d:	0f b6 45 9c          	movzbl -0x64(%rbp),%eax
    ba91:	83 e0 01             	and    $0x1,%eax
    ba94:	89 45 a4             	mov    %eax,-0x5c(%rbp)
    ba97:	0f b6 45 98          	movzbl -0x68(%rbp),%eax
    ba9b:	c0 e8 06             	shr    $0x6,%al
    ba9e:	0f b6 c0             	movzbl %al,%eax
    baa1:	83 e0 03             	and    $0x3,%eax
    baa4:	89 45 a8             	mov    %eax,-0x58(%rbp)
    baa7:	0f b6 45 98          	movzbl -0x68(%rbp),%eax
    baab:	83 e0 07             	and    $0x7,%eax
    baae:	89 45 ac             	mov    %eax,-0x54(%rbp)
    bab1:	8b 45 a8             	mov    -0x58(%rbp),%eax
    bab4:	48 98                	cltq   
    bab6:	48 8d 14 c5 00 00 00 	lea    0x0(,%rax,8),%rdx
    babd:	00 
    babe:	48 8d 05 db c1 00 00 	lea    0xc1db(%rip),%rax        # 17ca0 <mod_source_only_handlers>
    bac5:	4c 8b 04 02          	mov    (%rdx,%rax,1),%r8
    bac9:	48 8d 4d b0          	lea    -0x50(%rbp),%rcx
    bacd:	48 8b 55 90          	mov    -0x70(%rbp),%rdx
    bad1:	8b 75 ac             	mov    -0x54(%rbp),%esi
    bad4:	8b 45 a4             	mov    -0x5c(%rbp),%eax
    bad7:	89 c7                	mov    %eax,%edi
    bad9:	41 ff d0             	call   *%r8
    badc:	48 8b 45 90          	mov    -0x70(%rbp),%rax
    bae0:	48 83 c0 38          	add    $0x38,%rax
    bae4:	ff 75 e8             	push   -0x18(%rbp)
    bae7:	ff 75 e0             	push   -0x20(%rbp)
    baea:	ff 75 d8             	push   -0x28(%rbp)
    baed:	ff 75 d0             	push   -0x30(%rbp)
    baf0:	ff 75 c8             	push   -0x38(%rbp)
    baf3:	ff 75 c0             	push   -0x40(%rbp)
    baf6:	ff 75 b8             	push   -0x48(%rbp)
    baf9:	ff 75 b0             	push   -0x50(%rbp)
    bafc:	48 89 c7             	mov    %rax,%rdi
    baff:	e8 94 5a 00 00       	call   11598 <instruction_list__push>
    bb04:	48 83 c4 40          	add    $0x40,%rsp
    bb08:	90                   	nop
    bb09:	48 8b 45 f8          	mov    -0x8(%rbp),%rax
    bb0d:	64 48 2b 04 25 28 00 	sub    %fs:0x28,%rax
    bb14:	00 00 
    bb16:	74 05                	je     bb1d <opcode__cont_mul+0xf3>
    bb18:	e8 53 c6 ff ff       	call   8170 <__stack_chk_fail@plt>
    bb1d:	c9                   	leave  
    bb1e:	c3                   	ret    

000000000000bb1f <opcode__cont_imul>:
    bb1f:	f3 0f 1e fa          	endbr64 
    bb23:	55                   	push   %rbp
    bb24:	48 89 e5             	mov    %rsp,%rbp
    bb27:	48 83 ec 70          	sub    $0x70,%rsp
    bb2b:	89 f9                	mov    %edi,%ecx
    bb2d:	89 f0                	mov    %esi,%eax
    bb2f:	48 89 55 90          	mov    %rdx,-0x70(%rbp)
    bb33:	89 ca                	mov    %ecx,%edx
    bb35:	88 55 9c             	mov    %dl,-0x64(%rbp)
    bb38:	88 45 98             	mov    %al,-0x68(%rbp)
    bb3b:	64 48 8b 04 25 28 00 	mov    %fs:0x28,%rax
    bb42:	00 00 
    bb44:	48 89 45 f8          	mov    %rax,-0x8(%rbp)
    bb48:	31 c0                	xor    %eax,%eax
    bb4a:	48 8b 45 90          	mov    -0x70(%rbp),%rax
    bb4e:	48 89 c7             	mov    %rax,%rdi
    bb51:	e8 08 58 00 00       	call   1135e <file_reader__read_bytes_so_far>
    bb56:	8d 50 ff             	lea    -0x1(%rax),%edx
    bb59:	48 8d 45 b0          	lea    -0x50(%rbp),%rax
    bb5d:	89 d6                	mov    %edx,%esi
    bb5f:	48 89 c7             	mov    %rax,%rdi
    bb62:	e8 0c 58 00 00       	call   11373 <instruction__create>
    bb67:	48 8d 45 b0          	lea    -0x50(%rbp),%rax
    bb6b:	48 8d 15 78 66 00 00 	lea    0x6678(%rip),%rdx        # 121ea <_IO_stdin_used+0x1ea>
    bb72:	48 89 d6             	mov    %rdx,%rsi
    bb75:	48 89 c7             	mov    %rax,%rdi
    bb78:	b8 00 00 00 00       	mov    $0x0,%eax
    bb7d:	e8 38 58 00 00       	call   113ba <instruction__push>
    bb82:	0f b6 45 9c          	movzbl -0x64(%rbp),%eax
    bb86:	83 e0 01             	and    $0x1,%eax
    bb89:	89 45 a4             	mov    %eax,-0x5c(%rbp)
    bb8c:	0f b6 45 98          	movzbl -0x68(%rbp),%eax
    bb90:	c0 e8 06             	shr    $0x6,%al
    bb93:	0f b6 c0             	movzbl %al,%eax
    bb96:	83 e0 03             	and    $0x3,%eax
    bb99:	89 45 a8             	mov    %eax,-0x58(%rbp)
    bb9c:	0f b6 45 98          	movzbl -0x68(%rbp),%eax
    bba0:	83 e0 07             	and    $0x7,%eax
    bba3:	89 45 ac             	mov    %eax,-0x54(%rbp)
    bba6:	8b 45 a8             	mov    -0x58(%rbp),%eax
    bba9:	48 98                	cltq   
    bbab:	48 8d 14 c5 00 00 00 	lea    0x0(,%rax,8),%rdx
    bbb2:	00 
    bbb3:	48 8d 05 e6 c0 00 00 	lea    0xc0e6(%rip),%rax        # 17ca0 <mod_source_only_handlers>
    bbba:	4c 8b 04 02          	mov    (%rdx,%rax,1),%r8
    bbbe:	48 8d 4d b0          	lea    -0x50(%rbp),%rcx
    bbc2:	48 8b 55 90          	mov    -0x70(%rbp),%rdx
    bbc6:	8b 75 ac             	mov    -0x54(%rbp),%esi
    bbc9:	8b 45 a4             	mov    -0x5c(%rbp),%eax
    bbcc:	89 c7                	mov    %eax,%edi
    bbce:	41 ff d0             	call   *%r8
    bbd1:	48 8b 45 90          	mov    -0x70(%rbp),%rax
    bbd5:	48 83 c0 38          	add    $0x38,%rax
    bbd9:	ff 75 e8             	push   -0x18(%rbp)
    bbdc:	ff 75 e0             	push   -0x20(%rbp)
    bbdf:	ff 75 d8             	push   -0x28(%rbp)
    bbe2:	ff 75 d0             	push   -0x30(%rbp)
    bbe5:	ff 75 c8             	push   -0x38(%rbp)
    bbe8:	ff 75 c0             	push   -0x40(%rbp)
    bbeb:	ff 75 b8             	push   -0x48(%rbp)
    bbee:	ff 75 b0             	push   -0x50(%rbp)
    bbf1:	48 89 c7             	mov    %rax,%rdi
    bbf4:	e8 9f 59 00 00       	call   11598 <instruction_list__push>
    bbf9:	48 83 c4 40          	add    $0x40,%rsp
    bbfd:	90                   	nop
    bbfe:	48 8b 45 f8          	mov    -0x8(%rbp),%rax
    bc02:	64 48 2b 04 25 28 00 	sub    %fs:0x28,%rax
    bc09:	00 00 
    bc0b:	74 05                	je     bc12 <opcode__cont_imul+0xf3>
    bc0d:	e8 5e c5 ff ff       	call   8170 <__stack_chk_fail@plt>
    bc12:	c9                   	leave  
    bc13:	c3                   	ret    

000000000000bc14 <opcode__aam>:
    bc14:	f3 0f 1e fa          	endbr64 
    bc18:	55                   	push   %rbp
    bc19:	48 89 e5             	mov    %rsp,%rbp
    bc1c:	48 83 ec 70          	sub    $0x70,%rsp
    bc20:	89 f8                	mov    %edi,%eax
    bc22:	48 89 75 90          	mov    %rsi,-0x70(%rbp)
    bc26:	88 45 9c             	mov    %al,-0x64(%rbp)
    bc29:	64 48 8b 04 25 28 00 	mov    %fs:0x28,%rax
    bc30:	00 00 
    bc32:	48 89 45 f8          	mov    %rax,-0x8(%rbp)
    bc36:	31 c0                	xor    %eax,%eax
    bc38:	48 8b 45 90          	mov    -0x70(%rbp),%rax
    bc3c:	48 89 c7             	mov    %rax,%rdi
    bc3f:	e8 1a 57 00 00       	call   1135e <file_reader__read_bytes_so_far>
    bc44:	8d 50 ff             	lea    -0x1(%rax),%edx
    bc47:	48 8d 45 b0          	lea    -0x50(%rbp),%rax
    bc4b:	89 d6                	mov    %edx,%esi
    bc4d:	48 89 c7             	mov    %rax,%rdi
    bc50:	e8 1e 57 00 00       	call   11373 <instruction__create>
    bc55:	48 8d 45 b0          	lea    -0x50(%rbp),%rax
    bc59:	48 8d 15 90 65 00 00 	lea    0x6590(%rip),%rdx        # 121f0 <_IO_stdin_used+0x1f0>
    bc60:	48 89 d6             	mov    %rdx,%rsi
    bc63:	48 89 c7             	mov    %rax,%rdi
    bc66:	b8 00 00 00 00       	mov    $0x0,%eax
    bc6b:	e8 4a 57 00 00       	call   113ba <instruction__push>
    bc70:	48 8b 45 90          	mov    -0x70(%rbp),%rax
    bc74:	48 8b 50 20          	mov    0x20(%rax),%rdx
    bc78:	48 8b 45 90          	mov    -0x70(%rbp),%rax
    bc7c:	48 8d 4d af          	lea    -0x51(%rbp),%rcx
    bc80:	48 89 ce             	mov    %rcx,%rsi
    bc83:	48 89 c7             	mov    %rax,%rdi
    bc86:	e8 e2 55 00 00       	call   1126d <file_reader__read_byte>
    bc8b:	48 8b 45 90          	mov    -0x70(%rbp),%rax
    bc8f:	48 83 c0 38          	add    $0x38,%rax
    bc93:	ff 75 e8             	push   -0x18(%rbp)
    bc96:	ff 75 e0             	push   -0x20(%rbp)
    bc99:	ff 75 d8             	push   -0x28(%rbp)
    bc9c:	ff 75 d0             	push   -0x30(%rbp)
    bc9f:	ff 75 c8             	push   -0x38(%rbp)
    bca2:	ff 75 c0             	push   -0x40(%rbp)
    bca5:	ff 75 b8             	push   -0x48(%rbp)
    bca8:	ff 75 b0             	push   -0x50(%rbp)
    bcab:	48 89 c7             	mov    %rax,%rdi
    bcae:	e8 e5 58 00 00       	call   11598 <instruction_list__push>
    bcb3:	48 83 c4 40          	add    $0x40,%rsp
    bcb7:	90                   	nop
    bcb8:	48 8b 45 f8          	mov    -0x8(%rbp),%rax
    bcbc:	64 48 2b 04 25 28 00 	sub    %fs:0x28,%rax
    bcc3:	00 00 
    bcc5:	74 05                	je     bccc <opcode__aam+0xb8>
    bcc7:	e8 a4 c4 ff ff       	call   8170 <__stack_chk_fail@plt>
    bccc:	c9                   	leave  
    bccd:	c3                   	ret    

000000000000bcce <opcode__cont_div>:
    bcce:	f3 0f 1e fa          	endbr64 
    bcd2:	55                   	push   %rbp
    bcd3:	48 89 e5             	mov    %rsp,%rbp
    bcd6:	48 83 ec 70          	sub    $0x70,%rsp
    bcda:	89 f9                	mov    %edi,%ecx
    bcdc:	89 f0                	mov    %esi,%eax
    bcde:	48 89 55 90          	mov    %rdx,-0x70(%rbp)
    bce2:	89 ca                	mov    %ecx,%edx
    bce4:	88 55 9c             	mov    %dl,-0x64(%rbp)
    bce7:	88 45 98             	mov    %al,-0x68(%rbp)
    bcea:	64 48 8b 04 25 28 00 	mov    %fs:0x28,%rax
    bcf1:	00 00 
    bcf3:	48 89 45 f8          	mov    %rax,-0x8(%rbp)
    bcf7:	31 c0                	xor    %eax,%eax
    bcf9:	48 8b 45 90          	mov    -0x70(%rbp),%rax
    bcfd:	48 89 c7             	mov    %rax,%rdi
    bd00:	e8 59 56 00 00       	call   1135e <file_reader__read_bytes_so_far>
    bd05:	8d 50 ff             	lea    -0x1(%rax),%edx
    bd08:	48 8d 45 b0          	lea    -0x50(%rbp),%rax
    bd0c:	89 d6                	mov    %edx,%esi
    bd0e:	48 89 c7             	mov    %rax,%rdi
    bd11:	e8 5d 56 00 00       	call   11373 <instruction__create>
    bd16:	48 8d 45 b0          	lea    -0x50(%rbp),%rax
    bd1a:	48 8d 15 d4 64 00 00 	lea    0x64d4(%rip),%rdx        # 121f5 <_IO_stdin_used+0x1f5>
    bd21:	48 89 d6             	mov    %rdx,%rsi
    bd24:	48 89 c7             	mov    %rax,%rdi
    bd27:	b8 00 00 00 00       	mov    $0x0,%eax
    bd2c:	e8 89 56 00 00       	call   113ba <instruction__push>
    bd31:	0f b6 45 9c          	movzbl -0x64(%rbp),%eax
    bd35:	83 e0 01             	and    $0x1,%eax
    bd38:	89 45 a4             	mov    %eax,-0x5c(%rbp)
    bd3b:	0f b6 45 98          	movzbl -0x68(%rbp),%eax
    bd3f:	c0 e8 06             	shr    $0x6,%al
    bd42:	0f b6 c0             	movzbl %al,%eax
    bd45:	83 e0 03             	and    $0x3,%eax
    bd48:	89 45 a8             	mov    %eax,-0x58(%rbp)
    bd4b:	0f b6 45 98          	movzbl -0x68(%rbp),%eax
    bd4f:	83 e0 07             	and    $0x7,%eax
    bd52:	89 45 ac             	mov    %eax,-0x54(%rbp)
    bd55:	8b 45 a8             	mov    -0x58(%rbp),%eax
    bd58:	48 98                	cltq   
    bd5a:	48 8d 14 c5 00 00 00 	lea    0x0(,%rax,8),%rdx
    bd61:	00 
    bd62:	48 8d 05 37 bf 00 00 	lea    0xbf37(%rip),%rax        # 17ca0 <mod_source_only_handlers>
    bd69:	4c 8b 04 02          	mov    (%rdx,%rax,1),%r8
    bd6d:	48 8d 4d b0          	lea    -0x50(%rbp),%rcx
    bd71:	48 8b 55 90          	mov    -0x70(%rbp),%rdx
    bd75:	8b 75 ac             	mov    -0x54(%rbp),%esi
    bd78:	8b 45 a4             	mov    -0x5c(%rbp),%eax
    bd7b:	89 c7                	mov    %eax,%edi
    bd7d:	41 ff d0             	call   *%r8
    bd80:	48 8b 45 90          	mov    -0x70(%rbp),%rax
    bd84:	48 83 c0 38          	add    $0x38,%rax
    bd88:	ff 75 e8             	push   -0x18(%rbp)
    bd8b:	ff 75 e0             	push   -0x20(%rbp)
    bd8e:	ff 75 d8             	push   -0x28(%rbp)
    bd91:	ff 75 d0             	push   -0x30(%rbp)
    bd94:	ff 75 c8             	push   -0x38(%rbp)
    bd97:	ff 75 c0             	push   -0x40(%rbp)
    bd9a:	ff 75 b8             	push   -0x48(%rbp)
    bd9d:	ff 75 b0             	push   -0x50(%rbp)
    bda0:	48 89 c7             	mov    %rax,%rdi
    bda3:	e8 f0 57 00 00       	call   11598 <instruction_list__push>
    bda8:	48 83 c4 40          	add    $0x40,%rsp
    bdac:	90                   	nop
    bdad:	48 8b 45 f8          	mov    -0x8(%rbp),%rax
    bdb1:	64 48 2b 04 25 28 00 	sub    %fs:0x28,%rax
    bdb8:	00 00 
    bdba:	74 05                	je     bdc1 <opcode__cont_div+0xf3>
    bdbc:	e8 af c3 ff ff       	call   8170 <__stack_chk_fail@plt>
    bdc1:	c9                   	leave  
    bdc2:	c3                   	ret    

000000000000bdc3 <opcode__cont_idiv>:
    bdc3:	f3 0f 1e fa          	endbr64 
    bdc7:	55                   	push   %rbp
    bdc8:	48 89 e5             	mov    %rsp,%rbp
    bdcb:	48 83 ec 70          	sub    $0x70,%rsp
    bdcf:	89 f9                	mov    %edi,%ecx
    bdd1:	89 f0                	mov    %esi,%eax
    bdd3:	48 89 55 90          	mov    %rdx,-0x70(%rbp)
    bdd7:	89 ca                	mov    %ecx,%edx
    bdd9:	88 55 9c             	mov    %dl,-0x64(%rbp)
    bddc:	88 45 98             	mov    %al,-0x68(%rbp)
    bddf:	64 48 8b 04 25 28 00 	mov    %fs:0x28,%rax
    bde6:	00 00 
    bde8:	48 89 45 f8          	mov    %rax,-0x8(%rbp)
    bdec:	31 c0                	xor    %eax,%eax
    bdee:	48 8b 45 90          	mov    -0x70(%rbp),%rax
    bdf2:	48 89 c7             	mov    %rax,%rdi
    bdf5:	e8 64 55 00 00       	call   1135e <file_reader__read_bytes_so_far>
    bdfa:	8d 50 ff             	lea    -0x1(%rax),%edx
    bdfd:	48 8d 45 b0          	lea    -0x50(%rbp),%rax
    be01:	89 d6                	mov    %edx,%esi
    be03:	48 89 c7             	mov    %rax,%rdi
    be06:	e8 68 55 00 00       	call   11373 <instruction__create>
    be0b:	48 8d 45 b0          	lea    -0x50(%rbp),%rax
    be0f:	48 8d 15 e4 63 00 00 	lea    0x63e4(%rip),%rdx        # 121fa <_IO_stdin_used+0x1fa>
    be16:	48 89 d6             	mov    %rdx,%rsi
    be19:	48 89 c7             	mov    %rax,%rdi
    be1c:	b8 00 00 00 00       	mov    $0x0,%eax
    be21:	e8 94 55 00 00       	call   113ba <instruction__push>
    be26:	0f b6 45 9c          	movzbl -0x64(%rbp),%eax
    be2a:	83 e0 01             	and    $0x1,%eax
    be2d:	89 45 a4             	mov    %eax,-0x5c(%rbp)
    be30:	0f b6 45 98          	movzbl -0x68(%rbp),%eax
    be34:	c0 e8 06             	shr    $0x6,%al
    be37:	0f b6 c0             	movzbl %al,%eax
    be3a:	83 e0 03             	and    $0x3,%eax
    be3d:	89 45 a8             	mov    %eax,-0x58(%rbp)
    be40:	0f b6 45 98          	movzbl -0x68(%rbp),%eax
    be44:	83 e0 07             	and    $0x7,%eax
    be47:	89 45 ac             	mov    %eax,-0x54(%rbp)
    be4a:	8b 45 a8             	mov    -0x58(%rbp),%eax
    be4d:	48 98                	cltq   
    be4f:	48 8d 14 c5 00 00 00 	lea    0x0(,%rax,8),%rdx
    be56:	00 
    be57:	48 8d 05 42 be 00 00 	lea    0xbe42(%rip),%rax        # 17ca0 <mod_source_only_handlers>
    be5e:	4c 8b 04 02          	mov    (%rdx,%rax,1),%r8
    be62:	48 8d 4d b0          	lea    -0x50(%rbp),%rcx
    be66:	48 8b 55 90          	mov    -0x70(%rbp),%rdx
    be6a:	8b 75 ac             	mov    -0x54(%rbp),%esi
    be6d:	8b 45 a4             	mov    -0x5c(%rbp),%eax
    be70:	89 c7                	mov    %eax,%edi
    be72:	41 ff d0             	call   *%r8
    be75:	48 8b 45 90          	mov    -0x70(%rbp),%rax
    be79:	48 83 c0 38          	add    $0x38,%rax
    be7d:	ff 75 e8             	push   -0x18(%rbp)
    be80:	ff 75 e0             	push   -0x20(%rbp)
    be83:	ff 75 d8             	push   -0x28(%rbp)
    be86:	ff 75 d0             	push   -0x30(%rbp)
    be89:	ff 75 c8             	push   -0x38(%rbp)
    be8c:	ff 75 c0             	push   -0x40(%rbp)
    be8f:	ff 75 b8             	push   -0x48(%rbp)
    be92:	ff 75 b0             	push   -0x50(%rbp)
    be95:	48 89 c7             	mov    %rax,%rdi
    be98:	e8 fb 56 00 00       	call   11598 <instruction_list__push>
    be9d:	48 83 c4 40          	add    $0x40,%rsp
    bea1:	90                   	nop
    bea2:	48 8b 45 f8          	mov    -0x8(%rbp),%rax
    bea6:	64 48 2b 04 25 28 00 	sub    %fs:0x28,%rax
    bead:	00 00 
    beaf:	74 05                	je     beb6 <opcode__cont_idiv+0xf3>
    beb1:	e8 ba c2 ff ff       	call   8170 <__stack_chk_fail@plt>
    beb6:	c9                   	leave  
    beb7:	c3                   	ret    

000000000000beb8 <opcode__aad>:
    beb8:	f3 0f 1e fa          	endbr64 
    bebc:	55                   	push   %rbp
    bebd:	48 89 e5             	mov    %rsp,%rbp
    bec0:	48 83 ec 70          	sub    $0x70,%rsp
    bec4:	89 f8                	mov    %edi,%eax
    bec6:	48 89 75 90          	mov    %rsi,-0x70(%rbp)
    beca:	88 45 9c             	mov    %al,-0x64(%rbp)
    becd:	64 48 8b 04 25 28 00 	mov    %fs:0x28,%rax
    bed4:	00 00 
    bed6:	48 89 45 f8          	mov    %rax,-0x8(%rbp)
    beda:	31 c0                	xor    %eax,%eax
    bedc:	48 8b 45 90          	mov    -0x70(%rbp),%rax
    bee0:	48 89 c7             	mov    %rax,%rdi
    bee3:	e8 76 54 00 00       	call   1135e <file_reader__read_bytes_so_far>
    bee8:	8d 50 ff             	lea    -0x1(%rax),%edx
    beeb:	48 8d 45 b0          	lea    -0x50(%rbp),%rax
    beef:	89 d6                	mov    %edx,%esi
    bef1:	48 89 c7             	mov    %rax,%rdi
    bef4:	e8 7a 54 00 00       	call   11373 <instruction__create>
    bef9:	48 8d 45 b0          	lea    -0x50(%rbp),%rax
    befd:	48 8d 15 fc 62 00 00 	lea    0x62fc(%rip),%rdx        # 12200 <_IO_stdin_used+0x200>
    bf04:	48 89 d6             	mov    %rdx,%rsi
    bf07:	48 89 c7             	mov    %rax,%rdi
    bf0a:	b8 00 00 00 00       	mov    $0x0,%eax
    bf0f:	e8 a6 54 00 00       	call   113ba <instruction__push>
    bf14:	48 8b 45 90          	mov    -0x70(%rbp),%rax
    bf18:	48 8b 50 20          	mov    0x20(%rax),%rdx
    bf1c:	48 8b 45 90          	mov    -0x70(%rbp),%rax
    bf20:	48 8d 4d af          	lea    -0x51(%rbp),%rcx
    bf24:	48 89 ce             	mov    %rcx,%rsi
    bf27:	48 89 c7             	mov    %rax,%rdi
    bf2a:	e8 3e 53 00 00       	call   1126d <file_reader__read_byte>
    bf2f:	48 8b 45 90          	mov    -0x70(%rbp),%rax
    bf33:	48 83 c0 38          	add    $0x38,%rax
    bf37:	ff 75 e8             	push   -0x18(%rbp)
    bf3a:	ff 75 e0             	push   -0x20(%rbp)
    bf3d:	ff 75 d8             	push   -0x28(%rbp)
    bf40:	ff 75 d0             	push   -0x30(%rbp)
    bf43:	ff 75 c8             	push   -0x38(%rbp)
    bf46:	ff 75 c0             	push   -0x40(%rbp)
    bf49:	ff 75 b8             	push   -0x48(%rbp)
    bf4c:	ff 75 b0             	push   -0x50(%rbp)
    bf4f:	48 89 c7             	mov    %rax,%rdi
    bf52:	e8 41 56 00 00       	call   11598 <instruction_list__push>
